
ultrasonic_ranger.elf:     file format elf32-littlearm


Disassembly of section .text:

00000300 <Reset_Handler>:
    .align 2
    .globl   Reset_Handler
    .weak    Reset_Handler
    .type    Reset_Handler, %function
Reset_Handler:
    cpsid   i               /* Mask interrupts */
     300:	b672      	cpsid	i
#ifndef __NO_SYSTEM_INIT
    ldr   r0,=SystemInit
     302:	480b      	ldr	r0, [pc, #44]	@ (330 <Reset_Handler+0x30>)
    blx   r0
     304:	4780      	blx	r0
 *      linker script.
 *      __etext: End of code section, i.e., begin of data sections to copy from.
 *      __data_start__/__data_end__: RAM address range that data should be
 *      copied to. Both must be aligned to 4 bytes boundary.  */

    ldr    r1, =__etext
     306:	490b      	ldr	r1, [pc, #44]	@ (334 <Reset_Handler+0x34>)
    ldr    r2, =__data_start__
     308:	4a0b      	ldr	r2, [pc, #44]	@ (338 <Reset_Handler+0x38>)
    ldr    r3, =__data_end__
     30a:	4b0c      	ldr	r3, [pc, #48]	@ (33c <Reset_Handler+0x3c>)

    subs    r3, r2
     30c:	1a9b      	subs	r3, r3, r2
    ble     .LC0
     30e:	dd03      	ble.n	318 <Reset_Handler+0x18>

.LC1:
    subs    r3, 4
     310:	3b04      	subs	r3, #4
    ldr    r0, [r1,r3]
     312:	58c8      	ldr	r0, [r1, r3]
    str    r0, [r2,r3]
     314:	50d0      	str	r0, [r2, r3]
    bgt    .LC1
     316:	dcfb      	bgt.n	310 <Reset_Handler+0x10>
 *     Loop to zero out BSS section, which uses following symbols
 *     in linker script:
 *      __bss_start__: start of BSS section. Must align to 4
 *      __bss_end__: end of BSS section. Must align to 4
 */
    ldr r1, =__bss_start__
     318:	4909      	ldr	r1, [pc, #36]	@ (340 <Reset_Handler+0x40>)
    ldr r2, =__bss_end__
     31a:	4a0a      	ldr	r2, [pc, #40]	@ (344 <Reset_Handler+0x44>)

    subs    r2, r1
     31c:	1a52      	subs	r2, r2, r1
    ble .LC3
     31e:	dd03      	ble.n	328 <Reset_Handler+0x28>

    movs    r0, 0
     320:	2000      	movs	r0, #0
.LC2:
    subs    r2, 4
     322:	3a04      	subs	r2, #4
    str r0, [r1, r2]
     324:	5088      	str	r0, [r1, r2]
    bgt .LC2
     326:	dcfc      	bgt.n	322 <Reset_Handler+0x22>
.LC3:
#endif
    cpsie   i               /* Unmask interrupts */
     328:	b662      	cpsie	i
#else
#define __START _start
#endif
#endif
#ifndef __ATOLLIC__
    ldr   r0,=__START
     32a:	4807      	ldr	r0, [pc, #28]	@ (348 <Reset_Handler+0x48>)
    blx   r0
     32c:	4780      	blx	r0
     32e:	0000      	.short	0x0000
    ldr   r0,=SystemInit
     330:	00001e75 	.word	0x00001e75
    ldr    r1, =__etext
     334:	0000210c 	.word	0x0000210c
    ldr    r2, =__data_start__
     338:	10000000 	.word	0x10000000
    ldr    r3, =__data_end__
     33c:	10000024 	.word	0x10000024
    ldr r1, =__bss_start__
     340:	10000200 	.word	0x10000200
    ldr r2, =__bss_end__
     344:	10001d20 	.word	0x10001d20
    ldr   r0,=__START
     348:	00001c71 	.word	0x00001c71

0000034c <ADC0_OVR_DriverIRQHandler>:
    .align  1
    .thumb_func
    .weak DefaultISR
    .type DefaultISR, %function
DefaultISR:
    ldr r0, =DefaultISR
     34c:	4825      	ldr	r0, [pc, #148]	@ (3e4 <PIN_INT7_IRQHandler+0x4>)
    bx r0
     34e:	4700      	bx	r0

00000350 <NMI_Handler>:
    .align 1
    .thumb_func
    .weak NMI_Handler
    .type NMI_Handler, %function
NMI_Handler:
    ldr   r0,=NMI_Handler
     350:	4825      	ldr	r0, [pc, #148]	@ (3e8 <PIN_INT7_IRQHandler+0x8>)
    bx    r0
     352:	4700      	bx	r0

00000354 <HardFault_Handler>:
    .align 1
    .thumb_func
    .weak HardFault_Handler
    .type HardFault_Handler, %function
HardFault_Handler:
    ldr   r0,=HardFault_Handler
     354:	4825      	ldr	r0, [pc, #148]	@ (3ec <PIN_INT7_IRQHandler+0xc>)
    bx    r0
     356:	4700      	bx	r0

00000358 <SVC_Handler>:
    .align 1
    .thumb_func
    .weak SVC_Handler
    .type SVC_Handler, %function
SVC_Handler:
    ldr   r0,=SVC_Handler
     358:	4825      	ldr	r0, [pc, #148]	@ (3f0 <PIN_INT7_IRQHandler+0x10>)
    bx    r0
     35a:	4700      	bx	r0

0000035c <PendSV_Handler>:
    .align 1
    .thumb_func
    .weak PendSV_Handler
    .type PendSV_Handler, %function
PendSV_Handler:
    ldr   r0,=PendSV_Handler
     35c:	4825      	ldr	r0, [pc, #148]	@ (3f4 <PIN_INT7_IRQHandler+0x14>)
    bx    r0
     35e:	4700      	bx	r0

00000360 <SysTick_Handler>:
    .align 1
    .thumb_func
    .weak SysTick_Handler
    .type SysTick_Handler, %function
SysTick_Handler:
    ldr   r0,=SysTick_Handler
     360:	4825      	ldr	r0, [pc, #148]	@ (3f8 <PIN_INT7_IRQHandler+0x18>)
    bx    r0
     362:	4700      	bx	r0

00000364 <SPI0_IRQHandler>:
    .align 1
    .thumb_func
    .weak SPI0_IRQHandler
    .type SPI0_IRQHandler, %function
SPI0_IRQHandler:
    ldr   r0,=SPI0_DriverIRQHandler
     364:	4825      	ldr	r0, [pc, #148]	@ (3fc <PIN_INT7_IRQHandler+0x1c>)
    bx    r0
     366:	4700      	bx	r0

00000368 <SPI1_IRQHandler>:
    .align 1
    .thumb_func
    .weak SPI1_IRQHandler
    .type SPI1_IRQHandler, %function
SPI1_IRQHandler:
    ldr   r0,=SPI1_DriverIRQHandler
     368:	4825      	ldr	r0, [pc, #148]	@ (400 <PIN_INT7_IRQHandler+0x20>)
    bx    r0
     36a:	4700      	bx	r0

0000036c <Reserved18_IRQHandler>:
    .align 1
    .thumb_func
    .weak Reserved18_IRQHandler
    .type Reserved18_IRQHandler, %function
Reserved18_IRQHandler:
    ldr   r0,=Reserved18_DriverIRQHandler
     36c:	4825      	ldr	r0, [pc, #148]	@ (404 <PIN_INT7_IRQHandler+0x24>)
    bx    r0
     36e:	4700      	bx	r0

00000370 <USART0_IRQHandler>:
    .align 1
    .thumb_func
    .weak USART0_IRQHandler
    .type USART0_IRQHandler, %function
USART0_IRQHandler:
    ldr   r0,=USART0_DriverIRQHandler
     370:	4825      	ldr	r0, [pc, #148]	@ (408 <PIN_INT7_IRQHandler+0x28>)
    bx    r0
     372:	4700      	bx	r0

00000374 <USART1_IRQHandler>:
    .align 1
    .thumb_func
    .weak USART1_IRQHandler
    .type USART1_IRQHandler, %function
USART1_IRQHandler:
    ldr   r0,=USART1_DriverIRQHandler
     374:	4825      	ldr	r0, [pc, #148]	@ (40c <PIN_INT7_IRQHandler+0x2c>)
    bx    r0
     376:	4700      	bx	r0

00000378 <USART2_IRQHandler>:
    .align 1
    .thumb_func
    .weak USART2_IRQHandler
    .type USART2_IRQHandler, %function
USART2_IRQHandler:
    ldr   r0,=USART2_DriverIRQHandler
     378:	4825      	ldr	r0, [pc, #148]	@ (410 <PIN_INT7_IRQHandler+0x30>)
    bx    r0
     37a:	4700      	bx	r0

0000037c <Reserved22_IRQHandler>:
    .align 1
    .thumb_func
    .weak Reserved22_IRQHandler
    .type Reserved22_IRQHandler, %function
Reserved22_IRQHandler:
    ldr   r0,=Reserved22_DriverIRQHandler
     37c:	4825      	ldr	r0, [pc, #148]	@ (414 <PIN_INT7_IRQHandler+0x34>)
    bx    r0
     37e:	4700      	bx	r0

00000380 <I2C1_IRQHandler>:
    .align 1
    .thumb_func
    .weak I2C1_IRQHandler
    .type I2C1_IRQHandler, %function
I2C1_IRQHandler:
    ldr   r0,=I2C1_DriverIRQHandler
     380:	4825      	ldr	r0, [pc, #148]	@ (418 <PIN_INT7_IRQHandler+0x38>)
    bx    r0
     382:	4700      	bx	r0

00000384 <I2C0_IRQHandler>:
    .align 1
    .thumb_func
    .weak I2C0_IRQHandler
    .type I2C0_IRQHandler, %function
I2C0_IRQHandler:
    ldr   r0,=I2C0_DriverIRQHandler
     384:	4825      	ldr	r0, [pc, #148]	@ (41c <PIN_INT7_IRQHandler+0x3c>)
    bx    r0
     386:	4700      	bx	r0
    .align 1
    .thumb_func
    .weak SCT0_IRQHandler
    .type SCT0_IRQHandler, %function
SCT0_IRQHandler:
    ldr   r0,=SCT0_DriverIRQHandler
     388:	4825      	ldr	r0, [pc, #148]	@ (420 <PIN_INT7_IRQHandler+0x40>)
    bx    r0
     38a:	4700      	bx	r0

0000038c <MRT0_IRQHandler>:
    .align 1
    .thumb_func
    .weak MRT0_IRQHandler
    .type MRT0_IRQHandler, %function
MRT0_IRQHandler:
    ldr   r0,=MRT0_DriverIRQHandler
     38c:	4825      	ldr	r0, [pc, #148]	@ (424 <PIN_INT7_IRQHandler+0x44>)
    bx    r0
     38e:	4700      	bx	r0

00000390 <CMP_IRQHandler>:
    .align 1
    .thumb_func
    .weak CMP_IRQHandler
    .type CMP_IRQHandler, %function
CMP_IRQHandler:
    ldr   r0,=CMP_DriverIRQHandler
     390:	4825      	ldr	r0, [pc, #148]	@ (428 <PIN_INT7_IRQHandler+0x48>)
    bx    r0
     392:	4700      	bx	r0

00000394 <WDT_IRQHandler>:
    .align 1
    .thumb_func
    .weak WDT_IRQHandler
    .type WDT_IRQHandler, %function
WDT_IRQHandler:
    ldr   r0,=WDT_DriverIRQHandler
     394:	4825      	ldr	r0, [pc, #148]	@ (42c <PIN_INT7_IRQHandler+0x4c>)
    bx    r0
     396:	4700      	bx	r0

00000398 <BOD_IRQHandler>:
    .align 1
    .thumb_func
    .weak BOD_IRQHandler
    .type BOD_IRQHandler, %function
BOD_IRQHandler:
    ldr   r0,=BOD_DriverIRQHandler
     398:	4825      	ldr	r0, [pc, #148]	@ (430 <PIN_INT7_IRQHandler+0x50>)
    bx    r0
     39a:	4700      	bx	r0

0000039c <FLASH_IRQHandler>:
    .align 1
    .thumb_func
    .weak FLASH_IRQHandler
    .type FLASH_IRQHandler, %function
FLASH_IRQHandler:
    ldr   r0,=FLASH_DriverIRQHandler
     39c:	4825      	ldr	r0, [pc, #148]	@ (434 <PIN_INT7_IRQHandler+0x54>)
    bx    r0
     39e:	4700      	bx	r0

000003a0 <WKT_IRQHandler>:
    .align 1
    .thumb_func
    .weak WKT_IRQHandler
    .type WKT_IRQHandler, %function
WKT_IRQHandler:
    ldr   r0,=WKT_DriverIRQHandler
     3a0:	4825      	ldr	r0, [pc, #148]	@ (438 <PIN_INT7_IRQHandler+0x58>)
    bx    r0
     3a2:	4700      	bx	r0

000003a4 <ADC0_SEQA_IRQHandler>:
    .align 1
    .thumb_func
    .weak ADC0_SEQA_IRQHandler
    .type ADC0_SEQA_IRQHandler, %function
ADC0_SEQA_IRQHandler:
    ldr   r0,=ADC0_SEQA_DriverIRQHandler
     3a4:	4825      	ldr	r0, [pc, #148]	@ (43c <PIN_INT7_IRQHandler+0x5c>)
    bx    r0
     3a6:	4700      	bx	r0

000003a8 <ADC0_SEQB_IRQHandler>:
    .align 1
    .thumb_func
    .weak ADC0_SEQB_IRQHandler
    .type ADC0_SEQB_IRQHandler, %function
ADC0_SEQB_IRQHandler:
    ldr   r0,=ADC0_SEQB_DriverIRQHandler
     3a8:	4825      	ldr	r0, [pc, #148]	@ (440 <PIN_INT7_IRQHandler+0x60>)
    bx    r0
     3aa:	4700      	bx	r0

000003ac <ADC0_THCMP_IRQHandler>:
    .align 1
    .thumb_func
    .weak ADC0_THCMP_IRQHandler
    .type ADC0_THCMP_IRQHandler, %function
ADC0_THCMP_IRQHandler:
    ldr   r0,=ADC0_THCMP_DriverIRQHandler
     3ac:	4825      	ldr	r0, [pc, #148]	@ (444 <PIN_INT7_IRQHandler+0x64>)
    bx    r0
     3ae:	4700      	bx	r0

000003b0 <ADC0_OVR_IRQHandler>:
    .align 1
    .thumb_func
    .weak ADC0_OVR_IRQHandler
    .type ADC0_OVR_IRQHandler, %function
ADC0_OVR_IRQHandler:
    ldr   r0,=ADC0_OVR_DriverIRQHandler
     3b0:	4825      	ldr	r0, [pc, #148]	@ (448 <PIN_INT7_IRQHandler+0x68>)
    bx    r0
     3b2:	4700      	bx	r0
    .align 1
    .thumb_func
    .weak DMA0_IRQHandler
    .type DMA0_IRQHandler, %function
DMA0_IRQHandler:
    ldr   r0,=DMA0_DriverIRQHandler
     3b4:	4825      	ldr	r0, [pc, #148]	@ (44c <PIN_INT7_IRQHandler+0x6c>)
    bx    r0
     3b6:	4700      	bx	r0

000003b8 <I2C2_IRQHandler>:
    .align 1
    .thumb_func
    .weak I2C2_IRQHandler
    .type I2C2_IRQHandler, %function
I2C2_IRQHandler:
    ldr   r0,=I2C2_DriverIRQHandler
     3b8:	4825      	ldr	r0, [pc, #148]	@ (450 <PIN_INT7_IRQHandler+0x70>)
    bx    r0
     3ba:	4700      	bx	r0

000003bc <I2C3_IRQHandler>:
    .align 1
    .thumb_func
    .weak I2C3_IRQHandler
    .type I2C3_IRQHandler, %function
I2C3_IRQHandler:
    ldr   r0,=I2C3_DriverIRQHandler
     3bc:	4825      	ldr	r0, [pc, #148]	@ (454 <PIN_INT7_IRQHandler+0x74>)
    bx    r0
     3be:	4700      	bx	r0

000003c0 <Reserved39_IRQHandler>:
    .align 1
    .thumb_func
    .weak Reserved39_IRQHandler
    .type Reserved39_IRQHandler, %function
Reserved39_IRQHandler:
    ldr   r0,=Reserved39_DriverIRQHandler
     3c0:	4825      	ldr	r0, [pc, #148]	@ (458 <PIN_INT7_IRQHandler+0x78>)
    bx    r0
     3c2:	4700      	bx	r0

000003c4 <PIN_INT0_IRQHandler>:
    .align 1
    .thumb_func
    .weak PIN_INT0_IRQHandler
    .type PIN_INT0_IRQHandler, %function
PIN_INT0_IRQHandler:
    ldr   r0,=PIN_INT0_DriverIRQHandler
     3c4:	4825      	ldr	r0, [pc, #148]	@ (45c <PIN_INT7_IRQHandler+0x7c>)
    bx    r0
     3c6:	4700      	bx	r0

000003c8 <PIN_INT1_IRQHandler>:
    .align 1
    .thumb_func
    .weak PIN_INT1_IRQHandler
    .type PIN_INT1_IRQHandler, %function
PIN_INT1_IRQHandler:
    ldr   r0,=PIN_INT1_DriverIRQHandler
     3c8:	4825      	ldr	r0, [pc, #148]	@ (460 <PIN_INT7_IRQHandler+0x80>)
    bx    r0
     3ca:	4700      	bx	r0

000003cc <PIN_INT2_IRQHandler>:
    .align 1
    .thumb_func
    .weak PIN_INT2_IRQHandler
    .type PIN_INT2_IRQHandler, %function
PIN_INT2_IRQHandler:
    ldr   r0,=PIN_INT2_DriverIRQHandler
     3cc:	4825      	ldr	r0, [pc, #148]	@ (464 <PIN_INT7_IRQHandler+0x84>)
    bx    r0
     3ce:	4700      	bx	r0

000003d0 <PIN_INT3_IRQHandler>:
    .align 1
    .thumb_func
    .weak PIN_INT3_IRQHandler
    .type PIN_INT3_IRQHandler, %function
PIN_INT3_IRQHandler:
    ldr   r0,=PIN_INT3_DriverIRQHandler
     3d0:	4825      	ldr	r0, [pc, #148]	@ (468 <PIN_INT7_IRQHandler+0x88>)
    bx    r0
     3d2:	4700      	bx	r0

000003d4 <PIN_INT4_IRQHandler>:
    .align 1
    .thumb_func
    .weak PIN_INT4_IRQHandler
    .type PIN_INT4_IRQHandler, %function
PIN_INT4_IRQHandler:
    ldr   r0,=PIN_INT4_DriverIRQHandler
     3d4:	4825      	ldr	r0, [pc, #148]	@ (46c <PIN_INT7_IRQHandler+0x8c>)
    bx    r0
     3d6:	4700      	bx	r0

000003d8 <PIN_INT5_IRQHandler>:
    .align 1
    .thumb_func
    .weak PIN_INT5_IRQHandler
    .type PIN_INT5_IRQHandler, %function
PIN_INT5_IRQHandler:
    ldr   r0,=PIN_INT5_DriverIRQHandler
     3d8:	4825      	ldr	r0, [pc, #148]	@ (470 <PIN_INT7_IRQHandler+0x90>)
    bx    r0
     3da:	4700      	bx	r0

000003dc <PIN_INT6_IRQHandler>:
    .align 1
    .thumb_func
    .weak PIN_INT6_IRQHandler
    .type PIN_INT6_IRQHandler, %function
PIN_INT6_IRQHandler:
    ldr   r0,=PIN_INT6_DriverIRQHandler
     3dc:	4825      	ldr	r0, [pc, #148]	@ (474 <PIN_INT7_IRQHandler+0x94>)
    bx    r0
     3de:	4700      	bx	r0

000003e0 <PIN_INT7_IRQHandler>:
    .align 1
    .thumb_func
    .weak PIN_INT7_IRQHandler
    .type PIN_INT7_IRQHandler, %function
PIN_INT7_IRQHandler:
    ldr   r0,=PIN_INT7_DriverIRQHandler
     3e0:	4825      	ldr	r0, [pc, #148]	@ (478 <PIN_INT7_IRQHandler+0x98>)
    bx    r0
     3e2:	4700      	bx	r0
    ldr r0, =DefaultISR
     3e4:	0000034d 	.word	0x0000034d
    ldr   r0,=NMI_Handler
     3e8:	00000351 	.word	0x00000351
    ldr   r0,=HardFault_Handler
     3ec:	00000355 	.word	0x00000355
    ldr   r0,=SVC_Handler
     3f0:	00000359 	.word	0x00000359
    ldr   r0,=PendSV_Handler
     3f4:	0000035d 	.word	0x0000035d
    ldr   r0,=SysTick_Handler
     3f8:	00000361 	.word	0x00000361
    ldr   r0,=SPI0_DriverIRQHandler
     3fc:	0000034d 	.word	0x0000034d
    ldr   r0,=SPI1_DriverIRQHandler
     400:	0000034d 	.word	0x0000034d
    ldr   r0,=Reserved18_DriverIRQHandler
     404:	0000034d 	.word	0x0000034d
    ldr   r0,=USART0_DriverIRQHandler
     408:	0000034d 	.word	0x0000034d
    ldr   r0,=USART1_DriverIRQHandler
     40c:	0000034d 	.word	0x0000034d
    ldr   r0,=USART2_DriverIRQHandler
     410:	0000034d 	.word	0x0000034d
    ldr   r0,=Reserved22_DriverIRQHandler
     414:	0000034d 	.word	0x0000034d
    ldr   r0,=I2C1_DriverIRQHandler
     418:	0000034d 	.word	0x0000034d
    ldr   r0,=I2C0_DriverIRQHandler
     41c:	0000034d 	.word	0x0000034d
    ldr   r0,=SCT0_DriverIRQHandler
     420:	0000034d 	.word	0x0000034d
    ldr   r0,=MRT0_DriverIRQHandler
     424:	0000034d 	.word	0x0000034d
    ldr   r0,=CMP_DriverIRQHandler
     428:	0000034d 	.word	0x0000034d
    ldr   r0,=WDT_DriverIRQHandler
     42c:	0000034d 	.word	0x0000034d
    ldr   r0,=BOD_DriverIRQHandler
     430:	0000034d 	.word	0x0000034d
    ldr   r0,=FLASH_DriverIRQHandler
     434:	0000034d 	.word	0x0000034d
    ldr   r0,=WKT_DriverIRQHandler
     438:	0000034d 	.word	0x0000034d
    ldr   r0,=ADC0_SEQA_DriverIRQHandler
     43c:	0000034d 	.word	0x0000034d
    ldr   r0,=ADC0_SEQB_DriverIRQHandler
     440:	0000034d 	.word	0x0000034d
    ldr   r0,=ADC0_THCMP_DriverIRQHandler
     444:	0000034d 	.word	0x0000034d
    ldr   r0,=ADC0_OVR_DriverIRQHandler
     448:	0000034d 	.word	0x0000034d
    ldr   r0,=DMA0_DriverIRQHandler
     44c:	0000034d 	.word	0x0000034d
    ldr   r0,=I2C2_DriverIRQHandler
     450:	0000034d 	.word	0x0000034d
    ldr   r0,=I2C3_DriverIRQHandler
     454:	0000034d 	.word	0x0000034d
    ldr   r0,=Reserved39_DriverIRQHandler
     458:	0000034d 	.word	0x0000034d
    ldr   r0,=PIN_INT0_DriverIRQHandler
     45c:	0000034d 	.word	0x0000034d
    ldr   r0,=PIN_INT1_DriverIRQHandler
     460:	0000034d 	.word	0x0000034d
    ldr   r0,=PIN_INT2_DriverIRQHandler
     464:	0000034d 	.word	0x0000034d
    ldr   r0,=PIN_INT3_DriverIRQHandler
     468:	0000034d 	.word	0x0000034d
    ldr   r0,=PIN_INT4_DriverIRQHandler
     46c:	0000034d 	.word	0x0000034d
    ldr   r0,=PIN_INT5_DriverIRQHandler
     470:	0000034d 	.word	0x0000034d
    ldr   r0,=PIN_INT6_DriverIRQHandler
     474:	0000034d 	.word	0x0000034d
    ldr   r0,=PIN_INT7_DriverIRQHandler
     478:	0000034d 	.word	0x0000034d

0000047c <__udivsi3>:
     47c:	2200      	movs	r2, #0
     47e:	0843      	lsrs	r3, r0, #1
     480:	428b      	cmp	r3, r1
     482:	d374      	bcc.n	56e <__udivsi3+0xf2>
     484:	0903      	lsrs	r3, r0, #4
     486:	428b      	cmp	r3, r1
     488:	d35f      	bcc.n	54a <__udivsi3+0xce>
     48a:	0a03      	lsrs	r3, r0, #8
     48c:	428b      	cmp	r3, r1
     48e:	d344      	bcc.n	51a <__udivsi3+0x9e>
     490:	0b03      	lsrs	r3, r0, #12
     492:	428b      	cmp	r3, r1
     494:	d328      	bcc.n	4e8 <__udivsi3+0x6c>
     496:	0c03      	lsrs	r3, r0, #16
     498:	428b      	cmp	r3, r1
     49a:	d30d      	bcc.n	4b8 <__udivsi3+0x3c>
     49c:	22ff      	movs	r2, #255	@ 0xff
     49e:	0209      	lsls	r1, r1, #8
     4a0:	ba12      	rev	r2, r2
     4a2:	0c03      	lsrs	r3, r0, #16
     4a4:	428b      	cmp	r3, r1
     4a6:	d302      	bcc.n	4ae <__udivsi3+0x32>
     4a8:	1212      	asrs	r2, r2, #8
     4aa:	0209      	lsls	r1, r1, #8
     4ac:	d065      	beq.n	57a <__udivsi3+0xfe>
     4ae:	0b03      	lsrs	r3, r0, #12
     4b0:	428b      	cmp	r3, r1
     4b2:	d319      	bcc.n	4e8 <__udivsi3+0x6c>
     4b4:	e000      	b.n	4b8 <__udivsi3+0x3c>
     4b6:	0a09      	lsrs	r1, r1, #8
     4b8:	0bc3      	lsrs	r3, r0, #15
     4ba:	428b      	cmp	r3, r1
     4bc:	d301      	bcc.n	4c2 <__udivsi3+0x46>
     4be:	03cb      	lsls	r3, r1, #15
     4c0:	1ac0      	subs	r0, r0, r3
     4c2:	4152      	adcs	r2, r2
     4c4:	0b83      	lsrs	r3, r0, #14
     4c6:	428b      	cmp	r3, r1
     4c8:	d301      	bcc.n	4ce <__udivsi3+0x52>
     4ca:	038b      	lsls	r3, r1, #14
     4cc:	1ac0      	subs	r0, r0, r3
     4ce:	4152      	adcs	r2, r2
     4d0:	0b43      	lsrs	r3, r0, #13
     4d2:	428b      	cmp	r3, r1
     4d4:	d301      	bcc.n	4da <__udivsi3+0x5e>
     4d6:	034b      	lsls	r3, r1, #13
     4d8:	1ac0      	subs	r0, r0, r3
     4da:	4152      	adcs	r2, r2
     4dc:	0b03      	lsrs	r3, r0, #12
     4de:	428b      	cmp	r3, r1
     4e0:	d301      	bcc.n	4e6 <__udivsi3+0x6a>
     4e2:	030b      	lsls	r3, r1, #12
     4e4:	1ac0      	subs	r0, r0, r3
     4e6:	4152      	adcs	r2, r2
     4e8:	0ac3      	lsrs	r3, r0, #11
     4ea:	428b      	cmp	r3, r1
     4ec:	d301      	bcc.n	4f2 <__udivsi3+0x76>
     4ee:	02cb      	lsls	r3, r1, #11
     4f0:	1ac0      	subs	r0, r0, r3
     4f2:	4152      	adcs	r2, r2
     4f4:	0a83      	lsrs	r3, r0, #10
     4f6:	428b      	cmp	r3, r1
     4f8:	d301      	bcc.n	4fe <__udivsi3+0x82>
     4fa:	028b      	lsls	r3, r1, #10
     4fc:	1ac0      	subs	r0, r0, r3
     4fe:	4152      	adcs	r2, r2
     500:	0a43      	lsrs	r3, r0, #9
     502:	428b      	cmp	r3, r1
     504:	d301      	bcc.n	50a <__udivsi3+0x8e>
     506:	024b      	lsls	r3, r1, #9
     508:	1ac0      	subs	r0, r0, r3
     50a:	4152      	adcs	r2, r2
     50c:	0a03      	lsrs	r3, r0, #8
     50e:	428b      	cmp	r3, r1
     510:	d301      	bcc.n	516 <__udivsi3+0x9a>
     512:	020b      	lsls	r3, r1, #8
     514:	1ac0      	subs	r0, r0, r3
     516:	4152      	adcs	r2, r2
     518:	d2cd      	bcs.n	4b6 <__udivsi3+0x3a>
     51a:	09c3      	lsrs	r3, r0, #7
     51c:	428b      	cmp	r3, r1
     51e:	d301      	bcc.n	524 <__udivsi3+0xa8>
     520:	01cb      	lsls	r3, r1, #7
     522:	1ac0      	subs	r0, r0, r3
     524:	4152      	adcs	r2, r2
     526:	0983      	lsrs	r3, r0, #6
     528:	428b      	cmp	r3, r1
     52a:	d301      	bcc.n	530 <__udivsi3+0xb4>
     52c:	018b      	lsls	r3, r1, #6
     52e:	1ac0      	subs	r0, r0, r3
     530:	4152      	adcs	r2, r2
     532:	0943      	lsrs	r3, r0, #5
     534:	428b      	cmp	r3, r1
     536:	d301      	bcc.n	53c <__udivsi3+0xc0>
     538:	014b      	lsls	r3, r1, #5
     53a:	1ac0      	subs	r0, r0, r3
     53c:	4152      	adcs	r2, r2
     53e:	0903      	lsrs	r3, r0, #4
     540:	428b      	cmp	r3, r1
     542:	d301      	bcc.n	548 <__udivsi3+0xcc>
     544:	010b      	lsls	r3, r1, #4
     546:	1ac0      	subs	r0, r0, r3
     548:	4152      	adcs	r2, r2
     54a:	08c3      	lsrs	r3, r0, #3
     54c:	428b      	cmp	r3, r1
     54e:	d301      	bcc.n	554 <__udivsi3+0xd8>
     550:	00cb      	lsls	r3, r1, #3
     552:	1ac0      	subs	r0, r0, r3
     554:	4152      	adcs	r2, r2
     556:	0883      	lsrs	r3, r0, #2
     558:	428b      	cmp	r3, r1
     55a:	d301      	bcc.n	560 <__udivsi3+0xe4>
     55c:	008b      	lsls	r3, r1, #2
     55e:	1ac0      	subs	r0, r0, r3
     560:	4152      	adcs	r2, r2
     562:	0843      	lsrs	r3, r0, #1
     564:	428b      	cmp	r3, r1
     566:	d301      	bcc.n	56c <__udivsi3+0xf0>
     568:	004b      	lsls	r3, r1, #1
     56a:	1ac0      	subs	r0, r0, r3
     56c:	4152      	adcs	r2, r2
     56e:	1a41      	subs	r1, r0, r1
     570:	d200      	bcs.n	574 <__udivsi3+0xf8>
     572:	4601      	mov	r1, r0
     574:	4152      	adcs	r2, r2
     576:	4610      	mov	r0, r2
     578:	4770      	bx	lr
     57a:	e7ff      	b.n	57c <__udivsi3+0x100>
     57c:	b501      	push	{r0, lr}
     57e:	2000      	movs	r0, #0
     580:	f000 f806 	bl	590 <__aeabi_idiv0>
     584:	bd02      	pop	{r1, pc}
     586:	46c0      	nop			@ (mov r8, r8)

00000588 <__aeabi_uidivmod>:
     588:	2900      	cmp	r1, #0
     58a:	d0f7      	beq.n	57c <__udivsi3+0x100>
     58c:	e776      	b.n	47c <__udivsi3>
     58e:	4770      	bx	lr

00000590 <__aeabi_idiv0>:
     590:	4770      	bx	lr
     592:	46c0      	nop			@ (mov r8, r8)

00000594 <__aeabi_uldivmod>:
     594:	2b00      	cmp	r3, #0
     596:	d111      	bne.n	5bc <__aeabi_uldivmod+0x28>
     598:	2a00      	cmp	r2, #0
     59a:	d10f      	bne.n	5bc <__aeabi_uldivmod+0x28>
     59c:	2900      	cmp	r1, #0
     59e:	d100      	bne.n	5a2 <__aeabi_uldivmod+0xe>
     5a0:	2800      	cmp	r0, #0
     5a2:	d002      	beq.n	5aa <__aeabi_uldivmod+0x16>
     5a4:	2100      	movs	r1, #0
     5a6:	43c9      	mvns	r1, r1
     5a8:	0008      	movs	r0, r1
     5aa:	b407      	push	{r0, r1, r2}
     5ac:	4802      	ldr	r0, [pc, #8]	@ (5b8 <__aeabi_uldivmod+0x24>)
     5ae:	a102      	add	r1, pc, #8	@ (adr r1, 5b8 <__aeabi_uldivmod+0x24>)
     5b0:	1840      	adds	r0, r0, r1
     5b2:	9002      	str	r0, [sp, #8]
     5b4:	bd03      	pop	{r0, r1, pc}
     5b6:	46c0      	nop			@ (mov r8, r8)
     5b8:	ffffffd9 	.word	0xffffffd9
     5bc:	b403      	push	{r0, r1}
     5be:	4668      	mov	r0, sp
     5c0:	b501      	push	{r0, lr}
     5c2:	9802      	ldr	r0, [sp, #8]
     5c4:	f000 f834 	bl	630 <__udivmoddi4>
     5c8:	9b01      	ldr	r3, [sp, #4]
     5ca:	469e      	mov	lr, r3
     5cc:	b002      	add	sp, #8
     5ce:	bc0c      	pop	{r2, r3}
     5d0:	4770      	bx	lr
     5d2:	46c0      	nop			@ (mov r8, r8)

000005d4 <__aeabi_lmul>:
     5d4:	b5f0      	push	{r4, r5, r6, r7, lr}
     5d6:	46ce      	mov	lr, r9
     5d8:	4699      	mov	r9, r3
     5da:	0c03      	lsrs	r3, r0, #16
     5dc:	469c      	mov	ip, r3
     5de:	0413      	lsls	r3, r2, #16
     5e0:	4647      	mov	r7, r8
     5e2:	0c1b      	lsrs	r3, r3, #16
     5e4:	001d      	movs	r5, r3
     5e6:	000e      	movs	r6, r1
     5e8:	4661      	mov	r1, ip
     5ea:	0404      	lsls	r4, r0, #16
     5ec:	0c24      	lsrs	r4, r4, #16
     5ee:	b580      	push	{r7, lr}
     5f0:	0007      	movs	r7, r0
     5f2:	0c10      	lsrs	r0, r2, #16
     5f4:	434b      	muls	r3, r1
     5f6:	4365      	muls	r5, r4
     5f8:	4341      	muls	r1, r0
     5fa:	4360      	muls	r0, r4
     5fc:	0c2c      	lsrs	r4, r5, #16
     5fe:	18c0      	adds	r0, r0, r3
     600:	1824      	adds	r4, r4, r0
     602:	468c      	mov	ip, r1
     604:	42a3      	cmp	r3, r4
     606:	d903      	bls.n	610 <__aeabi_lmul+0x3c>
     608:	2380      	movs	r3, #128	@ 0x80
     60a:	025b      	lsls	r3, r3, #9
     60c:	4698      	mov	r8, r3
     60e:	44c4      	add	ip, r8
     610:	4649      	mov	r1, r9
     612:	4379      	muls	r1, r7
     614:	4356      	muls	r6, r2
     616:	0c23      	lsrs	r3, r4, #16
     618:	042d      	lsls	r5, r5, #16
     61a:	0c2d      	lsrs	r5, r5, #16
     61c:	1989      	adds	r1, r1, r6
     61e:	4463      	add	r3, ip
     620:	0424      	lsls	r4, r4, #16
     622:	1960      	adds	r0, r4, r5
     624:	18c9      	adds	r1, r1, r3
     626:	bcc0      	pop	{r6, r7}
     628:	46b9      	mov	r9, r7
     62a:	46b0      	mov	r8, r6
     62c:	bdf0      	pop	{r4, r5, r6, r7, pc}
     62e:	46c0      	nop			@ (mov r8, r8)

00000630 <__udivmoddi4>:
     630:	b5f0      	push	{r4, r5, r6, r7, lr}
     632:	4657      	mov	r7, sl
     634:	464e      	mov	r6, r9
     636:	4645      	mov	r5, r8
     638:	46de      	mov	lr, fp
     63a:	b5e0      	push	{r5, r6, r7, lr}
     63c:	0004      	movs	r4, r0
     63e:	000d      	movs	r5, r1
     640:	4692      	mov	sl, r2
     642:	4699      	mov	r9, r3
     644:	b083      	sub	sp, #12
     646:	428b      	cmp	r3, r1
     648:	d830      	bhi.n	6ac <__udivmoddi4+0x7c>
     64a:	d02d      	beq.n	6a8 <__udivmoddi4+0x78>
     64c:	4649      	mov	r1, r9
     64e:	4650      	mov	r0, sl
     650:	f000 f8ba 	bl	7c8 <__clzdi2>
     654:	0029      	movs	r1, r5
     656:	0006      	movs	r6, r0
     658:	0020      	movs	r0, r4
     65a:	f000 f8b5 	bl	7c8 <__clzdi2>
     65e:	1a33      	subs	r3, r6, r0
     660:	4698      	mov	r8, r3
     662:	3b20      	subs	r3, #32
     664:	d434      	bmi.n	6d0 <__udivmoddi4+0xa0>
     666:	469b      	mov	fp, r3
     668:	4653      	mov	r3, sl
     66a:	465a      	mov	r2, fp
     66c:	4093      	lsls	r3, r2
     66e:	4642      	mov	r2, r8
     670:	001f      	movs	r7, r3
     672:	4653      	mov	r3, sl
     674:	4093      	lsls	r3, r2
     676:	001e      	movs	r6, r3
     678:	42af      	cmp	r7, r5
     67a:	d83b      	bhi.n	6f4 <__udivmoddi4+0xc4>
     67c:	42af      	cmp	r7, r5
     67e:	d100      	bne.n	682 <__udivmoddi4+0x52>
     680:	e079      	b.n	776 <__udivmoddi4+0x146>
     682:	465b      	mov	r3, fp
     684:	1ba4      	subs	r4, r4, r6
     686:	41bd      	sbcs	r5, r7
     688:	2b00      	cmp	r3, #0
     68a:	da00      	bge.n	68e <__udivmoddi4+0x5e>
     68c:	e076      	b.n	77c <__udivmoddi4+0x14c>
     68e:	2200      	movs	r2, #0
     690:	2300      	movs	r3, #0
     692:	9200      	str	r2, [sp, #0]
     694:	9301      	str	r3, [sp, #4]
     696:	2301      	movs	r3, #1
     698:	465a      	mov	r2, fp
     69a:	4093      	lsls	r3, r2
     69c:	9301      	str	r3, [sp, #4]
     69e:	2301      	movs	r3, #1
     6a0:	4642      	mov	r2, r8
     6a2:	4093      	lsls	r3, r2
     6a4:	9300      	str	r3, [sp, #0]
     6a6:	e029      	b.n	6fc <__udivmoddi4+0xcc>
     6a8:	4282      	cmp	r2, r0
     6aa:	d9cf      	bls.n	64c <__udivmoddi4+0x1c>
     6ac:	2200      	movs	r2, #0
     6ae:	2300      	movs	r3, #0
     6b0:	9200      	str	r2, [sp, #0]
     6b2:	9301      	str	r3, [sp, #4]
     6b4:	9b0c      	ldr	r3, [sp, #48]	@ 0x30
     6b6:	2b00      	cmp	r3, #0
     6b8:	d001      	beq.n	6be <__udivmoddi4+0x8e>
     6ba:	601c      	str	r4, [r3, #0]
     6bc:	605d      	str	r5, [r3, #4]
     6be:	9800      	ldr	r0, [sp, #0]
     6c0:	9901      	ldr	r1, [sp, #4]
     6c2:	b003      	add	sp, #12
     6c4:	bcf0      	pop	{r4, r5, r6, r7}
     6c6:	46bb      	mov	fp, r7
     6c8:	46b2      	mov	sl, r6
     6ca:	46a9      	mov	r9, r5
     6cc:	46a0      	mov	r8, r4
     6ce:	bdf0      	pop	{r4, r5, r6, r7, pc}
     6d0:	4642      	mov	r2, r8
     6d2:	469b      	mov	fp, r3
     6d4:	2320      	movs	r3, #32
     6d6:	1a9b      	subs	r3, r3, r2
     6d8:	4652      	mov	r2, sl
     6da:	40da      	lsrs	r2, r3
     6dc:	4641      	mov	r1, r8
     6de:	0013      	movs	r3, r2
     6e0:	464a      	mov	r2, r9
     6e2:	408a      	lsls	r2, r1
     6e4:	0017      	movs	r7, r2
     6e6:	4642      	mov	r2, r8
     6e8:	431f      	orrs	r7, r3
     6ea:	4653      	mov	r3, sl
     6ec:	4093      	lsls	r3, r2
     6ee:	001e      	movs	r6, r3
     6f0:	42af      	cmp	r7, r5
     6f2:	d9c3      	bls.n	67c <__udivmoddi4+0x4c>
     6f4:	2200      	movs	r2, #0
     6f6:	2300      	movs	r3, #0
     6f8:	9200      	str	r2, [sp, #0]
     6fa:	9301      	str	r3, [sp, #4]
     6fc:	4643      	mov	r3, r8
     6fe:	2b00      	cmp	r3, #0
     700:	d0d8      	beq.n	6b4 <__udivmoddi4+0x84>
     702:	07fb      	lsls	r3, r7, #31
     704:	0872      	lsrs	r2, r6, #1
     706:	431a      	orrs	r2, r3
     708:	4646      	mov	r6, r8
     70a:	087b      	lsrs	r3, r7, #1
     70c:	e00e      	b.n	72c <__udivmoddi4+0xfc>
     70e:	42ab      	cmp	r3, r5
     710:	d101      	bne.n	716 <__udivmoddi4+0xe6>
     712:	42a2      	cmp	r2, r4
     714:	d80c      	bhi.n	730 <__udivmoddi4+0x100>
     716:	1aa4      	subs	r4, r4, r2
     718:	419d      	sbcs	r5, r3
     71a:	2001      	movs	r0, #1
     71c:	1924      	adds	r4, r4, r4
     71e:	416d      	adcs	r5, r5
     720:	2100      	movs	r1, #0
     722:	3e01      	subs	r6, #1
     724:	1824      	adds	r4, r4, r0
     726:	414d      	adcs	r5, r1
     728:	2e00      	cmp	r6, #0
     72a:	d006      	beq.n	73a <__udivmoddi4+0x10a>
     72c:	42ab      	cmp	r3, r5
     72e:	d9ee      	bls.n	70e <__udivmoddi4+0xde>
     730:	3e01      	subs	r6, #1
     732:	1924      	adds	r4, r4, r4
     734:	416d      	adcs	r5, r5
     736:	2e00      	cmp	r6, #0
     738:	d1f8      	bne.n	72c <__udivmoddi4+0xfc>
     73a:	9800      	ldr	r0, [sp, #0]
     73c:	9901      	ldr	r1, [sp, #4]
     73e:	465b      	mov	r3, fp
     740:	1900      	adds	r0, r0, r4
     742:	4169      	adcs	r1, r5
     744:	2b00      	cmp	r3, #0
     746:	db24      	blt.n	792 <__udivmoddi4+0x162>
     748:	002b      	movs	r3, r5
     74a:	465a      	mov	r2, fp
     74c:	4646      	mov	r6, r8
     74e:	40d3      	lsrs	r3, r2
     750:	002a      	movs	r2, r5
     752:	001c      	movs	r4, r3
     754:	40f2      	lsrs	r2, r6
     756:	465b      	mov	r3, fp
     758:	0015      	movs	r5, r2
     75a:	2b00      	cmp	r3, #0
     75c:	db2a      	blt.n	7b4 <__udivmoddi4+0x184>
     75e:	0026      	movs	r6, r4
     760:	409e      	lsls	r6, r3
     762:	0033      	movs	r3, r6
     764:	0026      	movs	r6, r4
     766:	4647      	mov	r7, r8
     768:	40be      	lsls	r6, r7
     76a:	0032      	movs	r2, r6
     76c:	1a80      	subs	r0, r0, r2
     76e:	4199      	sbcs	r1, r3
     770:	9000      	str	r0, [sp, #0]
     772:	9101      	str	r1, [sp, #4]
     774:	e79e      	b.n	6b4 <__udivmoddi4+0x84>
     776:	42a3      	cmp	r3, r4
     778:	d8bc      	bhi.n	6f4 <__udivmoddi4+0xc4>
     77a:	e782      	b.n	682 <__udivmoddi4+0x52>
     77c:	4642      	mov	r2, r8
     77e:	2320      	movs	r3, #32
     780:	2100      	movs	r1, #0
     782:	1a9b      	subs	r3, r3, r2
     784:	2200      	movs	r2, #0
     786:	9100      	str	r1, [sp, #0]
     788:	9201      	str	r2, [sp, #4]
     78a:	2201      	movs	r2, #1
     78c:	40da      	lsrs	r2, r3
     78e:	9201      	str	r2, [sp, #4]
     790:	e785      	b.n	69e <__udivmoddi4+0x6e>
     792:	4642      	mov	r2, r8
     794:	2320      	movs	r3, #32
     796:	1a9b      	subs	r3, r3, r2
     798:	002a      	movs	r2, r5
     79a:	4646      	mov	r6, r8
     79c:	409a      	lsls	r2, r3
     79e:	0023      	movs	r3, r4
     7a0:	40f3      	lsrs	r3, r6
     7a2:	4646      	mov	r6, r8
     7a4:	4313      	orrs	r3, r2
     7a6:	002a      	movs	r2, r5
     7a8:	001c      	movs	r4, r3
     7aa:	40f2      	lsrs	r2, r6
     7ac:	465b      	mov	r3, fp
     7ae:	0015      	movs	r5, r2
     7b0:	2b00      	cmp	r3, #0
     7b2:	dad4      	bge.n	75e <__udivmoddi4+0x12e>
     7b4:	2320      	movs	r3, #32
     7b6:	4642      	mov	r2, r8
     7b8:	002f      	movs	r7, r5
     7ba:	1b9b      	subs	r3, r3, r6
     7bc:	4097      	lsls	r7, r2
     7be:	0026      	movs	r6, r4
     7c0:	40de      	lsrs	r6, r3
     7c2:	003b      	movs	r3, r7
     7c4:	4333      	orrs	r3, r6
     7c6:	e7cd      	b.n	764 <__udivmoddi4+0x134>

000007c8 <__clzdi2>:
     7c8:	b510      	push	{r4, lr}
     7ca:	2900      	cmp	r1, #0
     7cc:	d103      	bne.n	7d6 <__clzdi2+0xe>
     7ce:	f000 f807 	bl	7e0 <__clzsi2>
     7d2:	3020      	adds	r0, #32
     7d4:	e002      	b.n	7dc <__clzdi2+0x14>
     7d6:	0008      	movs	r0, r1
     7d8:	f000 f802 	bl	7e0 <__clzsi2>
     7dc:	bd10      	pop	{r4, pc}
     7de:	46c0      	nop			@ (mov r8, r8)

000007e0 <__clzsi2>:
     7e0:	211c      	movs	r1, #28
     7e2:	2301      	movs	r3, #1
     7e4:	041b      	lsls	r3, r3, #16
     7e6:	4298      	cmp	r0, r3
     7e8:	d301      	bcc.n	7ee <__clzsi2+0xe>
     7ea:	0c00      	lsrs	r0, r0, #16
     7ec:	3910      	subs	r1, #16
     7ee:	0a1b      	lsrs	r3, r3, #8
     7f0:	4298      	cmp	r0, r3
     7f2:	d301      	bcc.n	7f8 <__clzsi2+0x18>
     7f4:	0a00      	lsrs	r0, r0, #8
     7f6:	3908      	subs	r1, #8
     7f8:	091b      	lsrs	r3, r3, #4
     7fa:	4298      	cmp	r0, r3
     7fc:	d301      	bcc.n	802 <__clzsi2+0x22>
     7fe:	0900      	lsrs	r0, r0, #4
     800:	3904      	subs	r1, #4
     802:	a202      	add	r2, pc, #8	@ (adr r2, 80c <__clzsi2+0x2c>)
     804:	5c10      	ldrb	r0, [r2, r0]
     806:	1840      	adds	r0, r0, r1
     808:	4770      	bx	lr
     80a:	46c0      	nop			@ (mov r8, r8)
     80c:	02020304 	.word	0x02020304
     810:	01010101 	.word	0x01010101
	...

0000081c <strlen>:
     81c:	b510      	push	{r4, lr}
     81e:	0783      	lsls	r3, r0, #30
     820:	d00a      	beq.n	838 <strlen+0x1c>
     822:	0003      	movs	r3, r0
     824:	2103      	movs	r1, #3
     826:	e002      	b.n	82e <strlen+0x12>
     828:	3301      	adds	r3, #1
     82a:	420b      	tst	r3, r1
     82c:	d005      	beq.n	83a <strlen+0x1e>
     82e:	781a      	ldrb	r2, [r3, #0]
     830:	2a00      	cmp	r2, #0
     832:	d1f9      	bne.n	828 <strlen+0xc>
     834:	1a18      	subs	r0, r3, r0
     836:	bd10      	pop	{r4, pc}
     838:	0003      	movs	r3, r0
     83a:	6819      	ldr	r1, [r3, #0]
     83c:	4a0c      	ldr	r2, [pc, #48]	@ (870 <strlen+0x54>)
     83e:	4c0d      	ldr	r4, [pc, #52]	@ (874 <strlen+0x58>)
     840:	188a      	adds	r2, r1, r2
     842:	438a      	bics	r2, r1
     844:	4222      	tst	r2, r4
     846:	d10f      	bne.n	868 <strlen+0x4c>
     848:	6859      	ldr	r1, [r3, #4]
     84a:	4a09      	ldr	r2, [pc, #36]	@ (870 <strlen+0x54>)
     84c:	3304      	adds	r3, #4
     84e:	188a      	adds	r2, r1, r2
     850:	438a      	bics	r2, r1
     852:	4222      	tst	r2, r4
     854:	d108      	bne.n	868 <strlen+0x4c>
     856:	6859      	ldr	r1, [r3, #4]
     858:	4a05      	ldr	r2, [pc, #20]	@ (870 <strlen+0x54>)
     85a:	3304      	adds	r3, #4
     85c:	188a      	adds	r2, r1, r2
     85e:	438a      	bics	r2, r1
     860:	4222      	tst	r2, r4
     862:	d0f1      	beq.n	848 <strlen+0x2c>
     864:	e000      	b.n	868 <strlen+0x4c>
     866:	3301      	adds	r3, #1
     868:	781a      	ldrb	r2, [r3, #0]
     86a:	2a00      	cmp	r2, #0
     86c:	d1fb      	bne.n	866 <strlen+0x4a>
     86e:	e7e1      	b.n	834 <strlen+0x18>
     870:	fefefeff 	.word	0xfefefeff
     874:	80808080 	.word	0x80808080

00000878 <strncmp>:
     878:	b530      	push	{r4, r5, lr}
     87a:	2a00      	cmp	r2, #0
     87c:	d026      	beq.n	8cc <strncmp+0x54>
     87e:	0003      	movs	r3, r0
     880:	430b      	orrs	r3, r1
     882:	079b      	lsls	r3, r3, #30
     884:	d124      	bne.n	8d0 <strncmp+0x58>
     886:	2a03      	cmp	r2, #3
     888:	d922      	bls.n	8d0 <strncmp+0x58>
     88a:	4d16      	ldr	r5, [pc, #88]	@ (8e4 <strncmp+0x6c>)
     88c:	e00b      	b.n	8a6 <strncmp+0x2e>
     88e:	3a04      	subs	r2, #4
     890:	2a00      	cmp	r2, #0
     892:	d01b      	beq.n	8cc <strncmp+0x54>
     894:	4c14      	ldr	r4, [pc, #80]	@ (8e8 <strncmp+0x70>)
     896:	191c      	adds	r4, r3, r4
     898:	439c      	bics	r4, r3
     89a:	422c      	tst	r4, r5
     89c:	d116      	bne.n	8cc <strncmp+0x54>
     89e:	3004      	adds	r0, #4
     8a0:	3104      	adds	r1, #4
     8a2:	2a03      	cmp	r2, #3
     8a4:	d914      	bls.n	8d0 <strncmp+0x58>
     8a6:	6803      	ldr	r3, [r0, #0]
     8a8:	680c      	ldr	r4, [r1, #0]
     8aa:	42a3      	cmp	r3, r4
     8ac:	d0ef      	beq.n	88e <strncmp+0x16>
     8ae:	7804      	ldrb	r4, [r0, #0]
     8b0:	780d      	ldrb	r5, [r1, #0]
     8b2:	42a5      	cmp	r5, r4
     8b4:	d113      	bne.n	8de <strncmp+0x66>
     8b6:	2301      	movs	r3, #1
     8b8:	e006      	b.n	8c8 <strncmp+0x50>
     8ba:	5cc4      	ldrb	r4, [r0, r3]
     8bc:	5ccd      	ldrb	r5, [r1, r3]
     8be:	42ac      	cmp	r4, r5
     8c0:	d10d      	bne.n	8de <strncmp+0x66>
     8c2:	3301      	adds	r3, #1
     8c4:	429a      	cmp	r2, r3
     8c6:	d001      	beq.n	8cc <strncmp+0x54>
     8c8:	2c00      	cmp	r4, #0
     8ca:	d1f6      	bne.n	8ba <strncmp+0x42>
     8cc:	2000      	movs	r0, #0
     8ce:	bd30      	pop	{r4, r5, pc}
     8d0:	7804      	ldrb	r4, [r0, #0]
     8d2:	780d      	ldrb	r5, [r1, #0]
     8d4:	42ac      	cmp	r4, r5
     8d6:	d102      	bne.n	8de <strncmp+0x66>
     8d8:	2a01      	cmp	r2, #1
     8da:	d1ec      	bne.n	8b6 <strncmp+0x3e>
     8dc:	e7f6      	b.n	8cc <strncmp+0x54>
     8de:	1b60      	subs	r0, r4, r5
     8e0:	e7f5      	b.n	8ce <strncmp+0x56>
     8e2:	46c0      	nop			@ (mov r8, r8)
     8e4:	80808080 	.word	0x80808080
     8e8:	fefefeff 	.word	0xfefefeff

000008ec <memcpy>:
     8ec:	b5f0      	push	{r4, r5, r6, r7, lr}
     8ee:	0005      	movs	r5, r0
     8f0:	2a0f      	cmp	r2, #15
     8f2:	d931      	bls.n	958 <memcpy+0x6c>
     8f4:	2703      	movs	r7, #3
     8f6:	003e      	movs	r6, r7
     8f8:	430d      	orrs	r5, r1
     8fa:	000c      	movs	r4, r1
     8fc:	0003      	movs	r3, r0
     8fe:	402e      	ands	r6, r5
     900:	422f      	tst	r7, r5
     902:	d134      	bne.n	96e <memcpy+0x82>
     904:	0015      	movs	r5, r2
     906:	3d10      	subs	r5, #16
     908:	092d      	lsrs	r5, r5, #4
     90a:	46ac      	mov	ip, r5
     90c:	012f      	lsls	r7, r5, #4
     90e:	183f      	adds	r7, r7, r0
     910:	6865      	ldr	r5, [r4, #4]
     912:	605d      	str	r5, [r3, #4]
     914:	68a5      	ldr	r5, [r4, #8]
     916:	609d      	str	r5, [r3, #8]
     918:	68e5      	ldr	r5, [r4, #12]
     91a:	60dd      	str	r5, [r3, #12]
     91c:	6825      	ldr	r5, [r4, #0]
     91e:	3410      	adds	r4, #16
     920:	601d      	str	r5, [r3, #0]
     922:	001d      	movs	r5, r3
     924:	3310      	adds	r3, #16
     926:	42bd      	cmp	r5, r7
     928:	d1f2      	bne.n	910 <memcpy+0x24>
     92a:	4665      	mov	r5, ip
     92c:	230f      	movs	r3, #15
     92e:	240c      	movs	r4, #12
     930:	3501      	adds	r5, #1
     932:	012d      	lsls	r5, r5, #4
     934:	1949      	adds	r1, r1, r5
     936:	4013      	ands	r3, r2
     938:	1945      	adds	r5, r0, r5
     93a:	4214      	tst	r4, r2
     93c:	d01a      	beq.n	974 <memcpy+0x88>
     93e:	3b04      	subs	r3, #4
     940:	089b      	lsrs	r3, r3, #2
     942:	3301      	adds	r3, #1
     944:	009b      	lsls	r3, r3, #2
     946:	598c      	ldr	r4, [r1, r6]
     948:	51ac      	str	r4, [r5, r6]
     94a:	3604      	adds	r6, #4
     94c:	429e      	cmp	r6, r3
     94e:	d1fa      	bne.n	946 <memcpy+0x5a>
     950:	2303      	movs	r3, #3
     952:	19ad      	adds	r5, r5, r6
     954:	1989      	adds	r1, r1, r6
     956:	401a      	ands	r2, r3
     958:	1e56      	subs	r6, r2, #1
     95a:	2a00      	cmp	r2, #0
     95c:	d006      	beq.n	96c <memcpy+0x80>
     95e:	2300      	movs	r3, #0
     960:	5ccc      	ldrb	r4, [r1, r3]
     962:	001a      	movs	r2, r3
     964:	54ec      	strb	r4, [r5, r3]
     966:	3301      	adds	r3, #1
     968:	4296      	cmp	r6, r2
     96a:	d1f9      	bne.n	960 <memcpy+0x74>
     96c:	bdf0      	pop	{r4, r5, r6, r7, pc}
     96e:	0005      	movs	r5, r0
     970:	1e56      	subs	r6, r2, #1
     972:	e7f4      	b.n	95e <memcpy+0x72>
     974:	001a      	movs	r2, r3
     976:	e7ef      	b.n	958 <memcpy+0x6c>

00000978 <strcmp>:
     978:	4602      	mov	r2, r0
     97a:	b570      	push	{r4, r5, r6, lr}
     97c:	430a      	orrs	r2, r1
     97e:	0792      	lsls	r2, r2, #30
     980:	d12a      	bne.n	9d8 <strcmp+0x60>
     982:	4d1e      	ldr	r5, [pc, #120]	@ (9fc <strcmp+0x84>)
     984:	01ee      	lsls	r6, r5, #7
     986:	c804      	ldmia	r0!, {r2}
     988:	c908      	ldmia	r1!, {r3}
     98a:	1b54      	subs	r4, r2, r5
     98c:	4394      	bics	r4, r2
     98e:	4034      	ands	r4, r6
     990:	d017      	beq.n	9c2 <strcmp+0x4a>
     992:	b2d0      	uxtb	r0, r2
     994:	b2d9      	uxtb	r1, r3
     996:	1a40      	subs	r0, r0, r1
     998:	0621      	lsls	r1, r4, #24
     99a:	4301      	orrs	r1, r0
     99c:	d110      	bne.n	9c0 <strcmp+0x48>
     99e:	b290      	uxth	r0, r2
     9a0:	b299      	uxth	r1, r3
     9a2:	1a40      	subs	r0, r0, r1
     9a4:	0421      	lsls	r1, r4, #16
     9a6:	4301      	orrs	r1, r0
     9a8:	d10a      	bne.n	9c0 <strcmp+0x48>
     9aa:	0210      	lsls	r0, r2, #8
     9ac:	0219      	lsls	r1, r3, #8
     9ae:	0a00      	lsrs	r0, r0, #8
     9b0:	0a09      	lsrs	r1, r1, #8
     9b2:	1a40      	subs	r0, r0, r1
     9b4:	0221      	lsls	r1, r4, #8
     9b6:	4301      	orrs	r1, r0
     9b8:	d102      	bne.n	9c0 <strcmp+0x48>
     9ba:	0e10      	lsrs	r0, r2, #24
     9bc:	0e19      	lsrs	r1, r3, #24
     9be:	1a40      	subs	r0, r0, r1
     9c0:	bd70      	pop	{r4, r5, r6, pc}
     9c2:	429a      	cmp	r2, r3
     9c4:	d0df      	beq.n	986 <strcmp+0xe>
     9c6:	ba10      	rev	r0, r2
     9c8:	ba19      	rev	r1, r3
     9ca:	4288      	cmp	r0, r1
     9cc:	d901      	bls.n	9d2 <strcmp+0x5a>
     9ce:	2001      	movs	r0, #1
     9d0:	bd70      	pop	{r4, r5, r6, pc}
     9d2:	2000      	movs	r0, #0
     9d4:	43c0      	mvns	r0, r0
     9d6:	bd70      	pop	{r4, r5, r6, pc}
     9d8:	7802      	ldrb	r2, [r0, #0]
     9da:	780b      	ldrb	r3, [r1, #0]
     9dc:	3001      	adds	r0, #1
     9de:	3101      	adds	r1, #1
     9e0:	2a00      	cmp	r2, #0
     9e2:	d009      	beq.n	9f8 <strcmp+0x80>
     9e4:	429a      	cmp	r2, r3
     9e6:	d107      	bne.n	9f8 <strcmp+0x80>
     9e8:	7802      	ldrb	r2, [r0, #0]
     9ea:	780b      	ldrb	r3, [r1, #0]
     9ec:	3001      	adds	r0, #1
     9ee:	3101      	adds	r1, #1
     9f0:	2a00      	cmp	r2, #0
     9f2:	d001      	beq.n	9f8 <strcmp+0x80>
     9f4:	429a      	cmp	r2, r3
     9f6:	d0ef      	beq.n	9d8 <strcmp+0x60>
     9f8:	1ad0      	subs	r0, r2, r3
     9fa:	bd70      	pop	{r4, r5, r6, pc}
     9fc:	01010101 	.word	0x01010101

00000a00 <debug_pin_pulse>:
        GPIO->CLR[0] = pin_mask(pin);
    }
}

static void debug_pin_pulse(uint32_t count)
{
     a00:	b510      	push	{r4, lr}
    for (uint32_t i = 0; i < count; ++i) {
     a02:	2300      	movs	r3, #0
     a04:	e009      	b.n	a1a <debug_pin_pulse+0x1a>
        GPIO->SET[0] = pin_mask(pin);
     a06:	22a0      	movs	r2, #160	@ 0xa0
     a08:	0612      	lsls	r2, r2, #24
     a0a:	2180      	movs	r1, #128	@ 0x80
     a0c:	01c9      	lsls	r1, r1, #7
     a0e:	2488      	movs	r4, #136	@ 0x88
     a10:	01a4      	lsls	r4, r4, #6
     a12:	5111      	str	r1, [r2, r4]
        GPIO->CLR[0] = pin_mask(pin);
     a14:	3480      	adds	r4, #128	@ 0x80
     a16:	5111      	str	r1, [r2, r4]
    for (uint32_t i = 0; i < count; ++i) {
     a18:	3301      	adds	r3, #1
     a1a:	4283      	cmp	r3, r0
     a1c:	d3f3      	bcc.n	a06 <debug_pin_pulse+0x6>
        gpio_write(PIN_DEBUG, true);
        gpio_write(PIN_DEBUG, false);
    }
}
     a1e:	bd10      	pop	{r4, pc}

00000a20 <mode_to_string>:

static const char *mode_to_string(capture_mode_t mode)
{
    switch (mode) {
     a20:	2801      	cmp	r0, #1
     a22:	d005      	beq.n	a30 <mode_to_string+0x10>
     a24:	2802      	cmp	r0, #2
     a26:	d005      	beq.n	a34 <mode_to_string+0x14>
     a28:	2800      	cmp	r0, #0
     a2a:	d105      	bne.n	a38 <mode_to_string+0x18>
     a2c:	4803      	ldr	r0, [pc, #12]	@ (a3c <mode_to_string+0x1c>)
     a2e:	e002      	b.n	a36 <mode_to_string+0x16>
    case CAPTURE_MODE_SINGLE:
        return "SINGLE";
    case CAPTURE_MODE_NSHOT:
        return "NSHOT";
     a30:	4803      	ldr	r0, [pc, #12]	@ (a40 <mode_to_string+0x20>)
     a32:	e000      	b.n	a36 <mode_to_string+0x16>
    case CAPTURE_MODE_CONTINUOUS:
        return "CONTINUOUS";
     a34:	4803      	ldr	r0, [pc, #12]	@ (a44 <mode_to_string+0x24>)
    default:
        return "UNKNOWN";
    }
}
     a36:	4770      	bx	lr
        return "UNKNOWN";
     a38:	4803      	ldr	r0, [pc, #12]	@ (a48 <mode_to_string+0x28>)
     a3a:	e7fc      	b.n	a36 <mode_to_string+0x16>
     a3c:	00001e98 	.word	0x00001e98
     a40:	00001ea0 	.word	0x00001ea0
     a44:	00001ea8 	.word	0x00001ea8
     a48:	00001eb4 	.word	0x00001eb4

00000a4c <format_to_string>:

static const char *format_to_string(output_format_t format)
{
    switch (format) {
     a4c:	2802      	cmp	r0, #2
     a4e:	d00a      	beq.n	a66 <format_to_string+0x1a>
     a50:	d805      	bhi.n	a5e <format_to_string+0x12>
     a52:	2800      	cmp	r0, #0
     a54:	d009      	beq.n	a6a <format_to_string+0x1e>
     a56:	2801      	cmp	r0, #1
     a58:	d109      	bne.n	a6e <format_to_string+0x22>
    case OUTPUT_FORMAT_COMPACT:
        return "COMPACT";
    case OUTPUT_FORMAT_TEXT:
        return "TEXT";
     a5a:	4807      	ldr	r0, [pc, #28]	@ (a78 <format_to_string+0x2c>)
     a5c:	e004      	b.n	a68 <format_to_string+0x1c>
    switch (format) {
     a5e:	2803      	cmp	r0, #3
     a60:	d107      	bne.n	a72 <format_to_string+0x26>
    case OUTPUT_FORMAT_BIN:
        return "BIN";
    case OUTPUT_FORMAT_ENV:
        return "ENV";
     a62:	4806      	ldr	r0, [pc, #24]	@ (a7c <format_to_string+0x30>)
     a64:	e000      	b.n	a68 <format_to_string+0x1c>
        return "BIN";
     a66:	4806      	ldr	r0, [pc, #24]	@ (a80 <format_to_string+0x34>)
    default:
        return "UNKNOWN";
    }
}
     a68:	4770      	bx	lr
    switch (format) {
     a6a:	4806      	ldr	r0, [pc, #24]	@ (a84 <format_to_string+0x38>)
     a6c:	e7fc      	b.n	a68 <format_to_string+0x1c>
        return "UNKNOWN";
     a6e:	4806      	ldr	r0, [pc, #24]	@ (a88 <format_to_string+0x3c>)
     a70:	e7fa      	b.n	a68 <format_to_string+0x1c>
     a72:	4805      	ldr	r0, [pc, #20]	@ (a88 <format_to_string+0x3c>)
     a74:	e7f8      	b.n	a68 <format_to_string+0x1c>
     a76:	46c0      	nop			@ (mov r8, r8)
     a78:	00001ec4 	.word	0x00001ec4
     a7c:	00001ed0 	.word	0x00001ed0
     a80:	00001ecc 	.word	0x00001ecc
     a84:	00001ebc 	.word	0x00001ebc
     a88:	00001eb4 	.word	0x00001eb4

00000a8c <parse_u32>:

static bool parse_u32(const char *text, uint32_t *value_out)
{
     a8c:	b510      	push	{r4, lr}
    uint32_t value = 0u;
    const char *cursor = text;

    if (*cursor == '\0') {
     a8e:	7803      	ldrb	r3, [r0, #0]
     a90:	2b00      	cmp	r3, #0
     a92:	d012      	beq.n	aba <parse_u32+0x2e>
    uint32_t value = 0u;
     a94:	2200      	movs	r2, #0
        return false;
    }

    while (*cursor != '\0') {
     a96:	7804      	ldrb	r4, [r0, #0]
     a98:	2c00      	cmp	r4, #0
     a9a:	d00b      	beq.n	ab4 <parse_u32+0x28>
        const char ch = *cursor++;
     a9c:	3001      	adds	r0, #1
        if (ch < '0' || ch > '9') {
     a9e:	0023      	movs	r3, r4
     aa0:	3b30      	subs	r3, #48	@ 0x30
     aa2:	b2db      	uxtb	r3, r3
     aa4:	2b09      	cmp	r3, #9
     aa6:	d80a      	bhi.n	abe <parse_u32+0x32>
            return false;
        }
        value = (value * 10u) + (uint32_t)(ch - '0');
     aa8:	0093      	lsls	r3, r2, #2
     aaa:	189b      	adds	r3, r3, r2
     aac:	005b      	lsls	r3, r3, #1
     aae:	18e2      	adds	r2, r4, r3
     ab0:	3a30      	subs	r2, #48	@ 0x30
     ab2:	e7f0      	b.n	a96 <parse_u32+0xa>
    }

    *value_out = value;
     ab4:	600a      	str	r2, [r1, #0]
    return true;
     ab6:	2001      	movs	r0, #1
     ab8:	e000      	b.n	abc <parse_u32+0x30>
        return false;
     aba:	2000      	movs	r0, #0
}
     abc:	bd10      	pop	{r4, pc}
            return false;
     abe:	2000      	movs	r0, #0
     ac0:	e7fc      	b.n	abc <parse_u32+0x30>
	...

00000ac4 <usart0_assign_pins>:
    return strncmp(text, prefix, prefix_len) == 0;
}

static void usart0_assign_pins(void)
{
    uint32_t reg = SWM0->PINASSIGN.PINASSIGN0;
     ac4:	4a03      	ldr	r2, [pc, #12]	@ (ad4 <usart0_assign_pins+0x10>)
     ac6:	6813      	ldr	r3, [r2, #0]

    reg &= ~(SWM_PINASSIGN0_U0_TXD_O_MASK | SWM_PINASSIGN0_U0_RXD_I_MASK);
     ac8:	0c1b      	lsrs	r3, r3, #16
     aca:	041b      	lsls	r3, r3, #16
    reg |= SWM_PINASSIGN0_U0_TXD_O(PIN_UART_TXD);
     acc:	2104      	movs	r1, #4
     ace:	430b      	orrs	r3, r1
    reg |= SWM_PINASSIGN0_U0_RXD_I(PIN_UART_RXD);
    SWM0->PINASSIGN.PINASSIGN0 = reg;
     ad0:	6013      	str	r3, [r2, #0]
}
     ad2:	4770      	bx	lr
     ad4:	4000c000 	.word	0x4000c000

00000ad8 <sct_assign_transducer_pins>:

static void sct_assign_transducer_pins(void)
{
    uint32_t reg7 = SWM0->PINASSIGN.PINASSIGN7;
     ad8:	4907      	ldr	r1, [pc, #28]	@ (af8 <sct_assign_transducer_pins+0x20>)
     ada:	69ca      	ldr	r2, [r1, #28]
    uint32_t reg8 = SWM0->PINASSIGN.PINASSIGN8;
     adc:	6a0b      	ldr	r3, [r1, #32]

    reg7 &= ~SWM_PINASSIGN7_SCT_OUT0_O_MASK;
     ade:	0212      	lsls	r2, r2, #8
     ae0:	0a12      	lsrs	r2, r2, #8
    reg7 |= SWM_PINASSIGN7_SCT_OUT0_O(PIN_TRANSDUCER_TX_A);
     ae2:	20f0      	movs	r0, #240	@ 0xf0
     ae4:	0500      	lsls	r0, r0, #20
     ae6:	4302      	orrs	r2, r0
    SWM0->PINASSIGN.PINASSIGN7 = reg7;
     ae8:	61ca      	str	r2, [r1, #28]

    reg8 &= ~SWM_PINASSIGN8_SCT_OUT1_O_MASK;
     aea:	22ff      	movs	r2, #255	@ 0xff
     aec:	4393      	bics	r3, r2
    reg8 |= SWM_PINASSIGN8_SCT_OUT1_O(PIN_TRANSDUCER_TX_B);
     aee:	3af6      	subs	r2, #246	@ 0xf6
     af0:	4313      	orrs	r3, r2
    SWM0->PINASSIGN.PINASSIGN8 = reg8;
     af2:	620b      	str	r3, [r1, #32]
}
     af4:	4770      	bx	lr
     af6:	46c0      	nop			@ (mov r8, r8)
     af8:	4000c000 	.word	0x4000c000

00000afc <adc3_enable_fixed_pin>:

static void adc3_enable_fixed_pin(void)
{
    SWM0->PINENABLE0 &= ~SWM_PINENABLE0_ADC_3_MASK;
     afc:	4903      	ldr	r1, [pc, #12]	@ (b0c <adc3_enable_fixed_pin+0x10>)
     afe:	22e0      	movs	r2, #224	@ 0xe0
     b00:	0052      	lsls	r2, r2, #1
     b02:	588b      	ldr	r3, [r1, r2]
     b04:	4802      	ldr	r0, [pc, #8]	@ (b10 <adc3_enable_fixed_pin+0x14>)
     b06:	4003      	ands	r3, r0
     b08:	508b      	str	r3, [r1, r2]
}
     b0a:	4770      	bx	lr
     b0c:	4000c000 	.word	0x4000c000
     b10:	fffeffff 	.word	0xfffeffff

00000b14 <usart0_configure_baud>:

static void usart0_configure_baud(uint32_t baud_rate)
{
     b14:	b5f0      	push	{r4, r5, r6, r7, lr}
     b16:	46de      	mov	lr, fp
     b18:	4657      	mov	r7, sl
     b1a:	464e      	mov	r6, r9
     b1c:	4645      	mov	r5, r8
     b1e:	b5e0      	push	{r5, r6, r7, lr}
     b20:	b091      	sub	sp, #68	@ 0x44
     b22:	900b      	str	r0, [sp, #44]	@ 0x2c
    uint64_t best_error = UINT64_MAX;
    uint32_t best_brg = 0u;
    uint32_t best_mult = 0u;

    SYSCON->UARTCLKDIV = SYSCON_UARTCLKDIV_DIV(1u);
     b24:	4b57      	ldr	r3, [pc, #348]	@ (c84 <usart0_configure_baud+0x170>)
     b26:	2294      	movs	r2, #148	@ 0x94
     b28:	2101      	movs	r1, #1
     b2a:	5099      	str	r1, [r3, r2]
    SYSCON->UARTFRGDIV = SYSCON_UARTFRGDIV_DIV(0xFFu);
     b2c:	325c      	adds	r2, #92	@ 0x5c
     b2e:	31fe      	adds	r1, #254	@ 0xfe
     b30:	5099      	str	r1, [r3, r2]

    for (uint32_t mult = 0u; mult <= 0xFFu; ++mult) {
     b32:	2300      	movs	r3, #0
     b34:	4699      	mov	r9, r3
    uint32_t best_mult = 0u;
     b36:	930f      	str	r3, [sp, #60]	@ 0x3c
    uint32_t best_brg = 0u;
     b38:	930e      	str	r3, [sp, #56]	@ 0x38
    uint64_t best_error = UINT64_MAX;
     b3a:	3b01      	subs	r3, #1
     b3c:	930d      	str	r3, [sp, #52]	@ 0x34
     b3e:	930c      	str	r3, [sp, #48]	@ 0x30
    for (uint32_t mult = 0u; mult <= 0xFFu; ++mult) {
     b40:	e039      	b.n	bb6 <usart0_configure_baud+0xa2>
            continue;
        }

        brg_plus_one = (numerator + (denominator / 2u)) / denominator;
        if (brg_plus_one == 0u) {
            brg_plus_one = 1u;
     b42:	2301      	movs	r3, #1
     b44:	9306      	str	r3, [sp, #24]
     b46:	2300      	movs	r3, #0
        }
        if (brg_plus_one > 65536u) {
            brg_plus_one = 65536u;
        }

        actual_baud = (numerator + (((uint64_t)(256u + mult) * 16u * brg_plus_one) / 2u)) /
     b48:	9a06      	ldr	r2, [sp, #24]
     b4a:	4658      	mov	r0, fp
     b4c:	2100      	movs	r1, #0
     b4e:	f7ff fd41 	bl	5d4 <__aeabi_lmul>
     b52:	0f02      	lsrs	r2, r0, #28
     b54:	010b      	lsls	r3, r1, #4
     b56:	4313      	orrs	r3, r2
     b58:	0102      	lsls	r2, r0, #4
     b5a:	07d9      	lsls	r1, r3, #31
     b5c:	0850      	lsrs	r0, r2, #1
     b5e:	9002      	str	r0, [sp, #8]
     b60:	4308      	orrs	r0, r1
     b62:	9002      	str	r0, [sp, #8]
     b64:	0859      	lsrs	r1, r3, #1
     b66:	9103      	str	r1, [sp, #12]
     b68:	9802      	ldr	r0, [sp, #8]
     b6a:	9903      	ldr	r1, [sp, #12]
     b6c:	1980      	adds	r0, r0, r6
     b6e:	4179      	adcs	r1, r7
     b70:	f7ff fd10 	bl	594 <__aeabi_uldivmod>
     b74:	9004      	str	r0, [sp, #16]
     b76:	9105      	str	r1, [sp, #20]
                      ((uint64_t)(256u + mult) * 16u * brg_plus_one);

        error = (actual_baud > baud_rate) ? (actual_baud - baud_rate) : (baud_rate - actual_baud);
     b78:	9a04      	ldr	r2, [sp, #16]
     b7a:	9b05      	ldr	r3, [sp, #20]
     b7c:	42ab      	cmp	r3, r5
     b7e:	d802      	bhi.n	b86 <usart0_configure_baud+0x72>
     b80:	d163      	bne.n	c4a <usart0_configure_baud+0x136>
     b82:	42a2      	cmp	r2, r4
     b84:	d961      	bls.n	c4a <usart0_configure_baud+0x136>
     b86:	9a04      	ldr	r2, [sp, #16]
     b88:	9b05      	ldr	r3, [sp, #20]
     b8a:	1b12      	subs	r2, r2, r4
     b8c:	41ab      	sbcs	r3, r5
        if (error < best_error) {
     b8e:	990c      	ldr	r1, [sp, #48]	@ 0x30
     b90:	4299      	cmp	r1, r3
     b92:	d803      	bhi.n	b9c <usart0_configure_baud+0x88>
     b94:	d10c      	bne.n	bb0 <usart0_configure_baud+0x9c>
     b96:	990d      	ldr	r1, [sp, #52]	@ 0x34
     b98:	4291      	cmp	r1, r2
     b9a:	d909      	bls.n	bb0 <usart0_configure_baud+0x9c>
            best_error = error;
            best_brg = (uint32_t)(brg_plus_one - 1u);
     b9c:	9906      	ldr	r1, [sp, #24]
     b9e:	3901      	subs	r1, #1
     ba0:	910e      	str	r1, [sp, #56]	@ 0x38
            best_mult = mult;
            if (error == 0u) {
     ba2:	0011      	movs	r1, r2
     ba4:	4319      	orrs	r1, r3
     ba6:	d059      	beq.n	c5c <usart0_configure_baud+0x148>
            best_mult = mult;
     ba8:	4649      	mov	r1, r9
     baa:	910f      	str	r1, [sp, #60]	@ 0x3c
            best_error = error;
     bac:	920d      	str	r2, [sp, #52]	@ 0x34
     bae:	930c      	str	r3, [sp, #48]	@ 0x30
    for (uint32_t mult = 0u; mult <= 0xFFu; ++mult) {
     bb0:	2301      	movs	r3, #1
     bb2:	469c      	mov	ip, r3
     bb4:	44e1      	add	r9, ip
     bb6:	464b      	mov	r3, r9
     bb8:	2bff      	cmp	r3, #255	@ 0xff
     bba:	d84d      	bhi.n	c58 <usart0_configure_baud+0x144>
        const uint64_t numerator = (uint64_t)SystemCoreClock * 256u;
     bbc:	4b32      	ldr	r3, [pc, #200]	@ (c88 <usart0_configure_baud+0x174>)
     bbe:	681b      	ldr	r3, [r3, #0]
     bc0:	0e1f      	lsrs	r7, r3, #24
     bc2:	021e      	lsls	r6, r3, #8
        const uint64_t denominator = (uint64_t)(256u + mult) * 16u * baud_rate;
     bc4:	2380      	movs	r3, #128	@ 0x80
     bc6:	005b      	lsls	r3, r3, #1
     bc8:	444b      	add	r3, r9
     bca:	469b      	mov	fp, r3
     bcc:	9c0b      	ldr	r4, [sp, #44]	@ 0x2c
     bce:	2500      	movs	r5, #0
     bd0:	0022      	movs	r2, r4
     bd2:	002b      	movs	r3, r5
     bd4:	4658      	mov	r0, fp
     bd6:	2100      	movs	r1, #0
     bd8:	f7ff fcfc 	bl	5d4 <__aeabi_lmul>
     bdc:	0f03      	lsrs	r3, r0, #28
     bde:	010a      	lsls	r2, r1, #4
     be0:	431a      	orrs	r2, r3
     be2:	4690      	mov	r8, r2
     be4:	0103      	lsls	r3, r0, #4
     be6:	469a      	mov	sl, r3
        if (denominator == 0u) {
     be8:	0013      	movs	r3, r2
     bea:	4652      	mov	r2, sl
     bec:	4313      	orrs	r3, r2
     bee:	d0df      	beq.n	bb0 <usart0_configure_baud+0x9c>
        brg_plus_one = (numerator + (denominator / 2u)) / denominator;
     bf0:	4643      	mov	r3, r8
     bf2:	07db      	lsls	r3, r3, #31
     bf4:	0852      	lsrs	r2, r2, #1
     bf6:	9200      	str	r2, [sp, #0]
     bf8:	431a      	orrs	r2, r3
     bfa:	9200      	str	r2, [sp, #0]
     bfc:	4643      	mov	r3, r8
     bfe:	085b      	lsrs	r3, r3, #1
     c00:	9301      	str	r3, [sp, #4]
     c02:	9a00      	ldr	r2, [sp, #0]
     c04:	9b01      	ldr	r3, [sp, #4]
     c06:	1992      	adds	r2, r2, r6
     c08:	417b      	adcs	r3, r7
     c0a:	0010      	movs	r0, r2
     c0c:	0019      	movs	r1, r3
     c0e:	4652      	mov	r2, sl
     c10:	4643      	mov	r3, r8
     c12:	9008      	str	r0, [sp, #32]
     c14:	9109      	str	r1, [sp, #36]	@ 0x24
     c16:	f7ff fcbd 	bl	594 <__aeabi_uldivmod>
     c1a:	000b      	movs	r3, r1
     c1c:	9006      	str	r0, [sp, #24]
        if (brg_plus_one == 0u) {
     c1e:	9908      	ldr	r1, [sp, #32]
     c20:	9a09      	ldr	r2, [sp, #36]	@ 0x24
     c22:	4590      	cmp	r8, r2
     c24:	d88d      	bhi.n	b42 <usart0_configure_baud+0x2e>
     c26:	d101      	bne.n	c2c <usart0_configure_baud+0x118>
     c28:	458a      	cmp	sl, r1
     c2a:	d88a      	bhi.n	b42 <usart0_configure_baud+0x2e>
        if (brg_plus_one > 65536u) {
     c2c:	2b00      	cmp	r3, #0
     c2e:	d107      	bne.n	c40 <usart0_configure_baud+0x12c>
     c30:	d000      	beq.n	c34 <usart0_configure_baud+0x120>
     c32:	e789      	b.n	b48 <usart0_configure_baud+0x34>
     c34:	2280      	movs	r2, #128	@ 0x80
     c36:	0252      	lsls	r2, r2, #9
     c38:	9906      	ldr	r1, [sp, #24]
     c3a:	4291      	cmp	r1, r2
     c3c:	d800      	bhi.n	c40 <usart0_configure_baud+0x12c>
     c3e:	e783      	b.n	b48 <usart0_configure_baud+0x34>
            brg_plus_one = 65536u;
     c40:	2380      	movs	r3, #128	@ 0x80
     c42:	025b      	lsls	r3, r3, #9
     c44:	9306      	str	r3, [sp, #24]
     c46:	2300      	movs	r3, #0
     c48:	e77e      	b.n	b48 <usart0_configure_baud+0x34>
        error = (actual_baud > baud_rate) ? (actual_baud - baud_rate) : (baud_rate - actual_baud);
     c4a:	0022      	movs	r2, r4
     c4c:	002b      	movs	r3, r5
     c4e:	9804      	ldr	r0, [sp, #16]
     c50:	9905      	ldr	r1, [sp, #20]
     c52:	1a12      	subs	r2, r2, r0
     c54:	418b      	sbcs	r3, r1
     c56:	e79a      	b.n	b8e <usart0_configure_baud+0x7a>
     c58:	9b0f      	ldr	r3, [sp, #60]	@ 0x3c
     c5a:	4699      	mov	r9, r3
                break;
            }
        }
    }

    USART0->OSR = USART_OSR_OSRVAL(15u);
     c5c:	4a0b      	ldr	r2, [pc, #44]	@ (c8c <usart0_configure_baud+0x178>)
     c5e:	230f      	movs	r3, #15
     c60:	6293      	str	r3, [r2, #40]	@ 0x28
    SYSCON->UARTFRGMULT = SYSCON_UARTFRGMULT_MULT(best_mult);
     c62:	33f0      	adds	r3, #240	@ 0xf0
     c64:	4649      	mov	r1, r9
     c66:	400b      	ands	r3, r1
     c68:	4806      	ldr	r0, [pc, #24]	@ (c84 <usart0_configure_baud+0x170>)
     c6a:	21f4      	movs	r1, #244	@ 0xf4
     c6c:	5043      	str	r3, [r0, r1]
    USART0->BRG = USART_BRG_BRGVAL(best_brg);
     c6e:	9b0e      	ldr	r3, [sp, #56]	@ 0x38
     c70:	041b      	lsls	r3, r3, #16
     c72:	0c1b      	lsrs	r3, r3, #16
     c74:	6213      	str	r3, [r2, #32]
}
     c76:	b011      	add	sp, #68	@ 0x44
     c78:	bcf0      	pop	{r4, r5, r6, r7}
     c7a:	46bb      	mov	fp, r7
     c7c:	46b2      	mov	sl, r6
     c7e:	46a9      	mov	r9, r5
     c80:	46a0      	mov	r8, r4
     c82:	bdf0      	pop	{r4, r5, r6, r7, pc}
     c84:	40048000 	.word	0x40048000
     c88:	10000020 	.word	0x10000020
     c8c:	40064000 	.word	0x40064000

00000c90 <usart0_init>:

static void usart0_init(void)
{
     c90:	b510      	push	{r4, lr}
    SYSCON->SYSAHBCLKCTRL |= mask;
     c92:	4b0f      	ldr	r3, [pc, #60]	@ (cd0 <usart0_init+0x40>)
     c94:	2180      	movs	r1, #128	@ 0x80
     c96:	5858      	ldr	r0, [r3, r1]
     c98:	2281      	movs	r2, #129	@ 0x81
     c9a:	01d2      	lsls	r2, r2, #7
     c9c:	4302      	orrs	r2, r0
     c9e:	505a      	str	r2, [r3, r1]
    SYSCON->PRESETCTRL &= ~mask;
     ca0:	685a      	ldr	r2, [r3, #4]
     ca2:	3974      	subs	r1, #116	@ 0x74
     ca4:	438a      	bics	r2, r1
     ca6:	605a      	str	r2, [r3, #4]
    SYSCON->PRESETCTRL |= mask;
     ca8:	685a      	ldr	r2, [r3, #4]
     caa:	430a      	orrs	r2, r1
     cac:	605a      	str	r2, [r3, #4]
    enable_clock(SYSCON_SYSAHBCLKCTRL_SWM_MASK | SYSCON_SYSAHBCLKCTRL_UART0_MASK);
    peripheral_reset(SYSCON_PRESETCTRL_UARTFRG_RST_N_MASK | SYSCON_PRESETCTRL_UART0_RST_N_MASK);

    usart0_assign_pins();
     cae:	f7ff ff09 	bl	ac4 <usart0_assign_pins>

    USART0->CFG = USART_CFG_DATALEN(1u) | USART_CFG_PARITYSEL(0u) | USART_CFG_STOPLEN(0u);
     cb2:	4c08      	ldr	r4, [pc, #32]	@ (cd4 <usart0_init+0x44>)
     cb4:	2304      	movs	r3, #4
     cb6:	6023      	str	r3, [r4, #0]
    USART0->CTL = 0u;
     cb8:	2300      	movs	r3, #0
     cba:	6063      	str	r3, [r4, #4]
    usart0_configure_baud(ULTRASONIC_UART_BAUD_RATE);
     cbc:	20e1      	movs	r0, #225	@ 0xe1
     cbe:	0280      	lsls	r0, r0, #10
     cc0:	f7ff ff28 	bl	b14 <usart0_configure_baud>
    USART0->CFG |= USART_CFG_ENABLE_MASK;
     cc4:	6823      	ldr	r3, [r4, #0]
     cc6:	2201      	movs	r2, #1
     cc8:	4313      	orrs	r3, r2
     cca:	6023      	str	r3, [r4, #0]
}
     ccc:	bd10      	pop	{r4, pc}
     cce:	46c0      	nop			@ (mov r8, r8)
     cd0:	40048000 	.word	0x40048000
     cd4:	40064000 	.word	0x40064000

00000cd8 <uart_rx_ready>:

static bool uart_rx_ready(void)
{
    return (USART0->STAT & USART_STAT_RXRDY_MASK) != 0u;
     cd8:	4b02      	ldr	r3, [pc, #8]	@ (ce4 <uart_rx_ready+0xc>)
     cda:	689b      	ldr	r3, [r3, #8]
     cdc:	2001      	movs	r0, #1
     cde:	4018      	ands	r0, r3
}
     ce0:	4770      	bx	lr
     ce2:	46c0      	nop			@ (mov r8, r8)
     ce4:	40064000 	.word	0x40064000

00000ce8 <uart_read_byte>:

static uint8_t uart_read_byte(void)
{
    return (uint8_t)((USART0->RXDAT & USART_RXDAT_RXDAT_MASK) >> USART_RXDAT_RXDAT_SHIFT);
     ce8:	4b01      	ldr	r3, [pc, #4]	@ (cf0 <uart_read_byte+0x8>)
     cea:	6958      	ldr	r0, [r3, #20]
     cec:	b2c0      	uxtb	r0, r0
}
     cee:	4770      	bx	lr
     cf0:	40064000 	.word	0x40064000

00000cf4 <estimate_envelope_sample_count>:
    uart_write_string(",target=LPC824,fw=ultrasonic_ranger");
    uart_write_crlf();
}

static uint32_t estimate_envelope_sample_count(void)
{
     cf4:	b570      	push	{r4, r5, r6, lr}
    const uint64_t numerator =
        ((uint64_t)g_config.sample_count * (uint64_t)g_config.tx_frequency_hz) +
     cf6:	4c09      	ldr	r4, [pc, #36]	@ (d1c <estimate_envelope_sample_count+0x28>)
     cf8:	6960      	ldr	r0, [r4, #20]
     cfa:	68a2      	ldr	r2, [r4, #8]
     cfc:	2300      	movs	r3, #0
     cfe:	2100      	movs	r1, #0
     d00:	f7ff fc68 	bl	5d4 <__aeabi_lmul>
        ((uint64_t)g_config.adc_sample_rate_hz - 1u);
     d04:	6922      	ldr	r2, [r4, #16]
     d06:	2300      	movs	r3, #0
        ((uint64_t)g_config.sample_count * (uint64_t)g_config.tx_frequency_hz) +
     d08:	1880      	adds	r0, r0, r2
     d0a:	4159      	adcs	r1, r3
    const uint64_t numerator =
     d0c:	2401      	movs	r4, #1
     d0e:	4264      	negs	r4, r4
     d10:	17e5      	asrs	r5, r4, #31
     d12:	1900      	adds	r0, r0, r4
     d14:	4169      	adcs	r1, r5
    return (uint32_t)(numerator / (uint64_t)g_config.adc_sample_rate_hz);
     d16:	f7ff fc3d 	bl	594 <__aeabi_uldivmod>
}
     d1a:	bd70      	pop	{r4, r5, r6, pc}
     d1c:	10000004 	.word	0x10000004

00000d20 <capture_is_active>:
    uart_write_crlf();
}

static bool capture_is_active(void)
{
    return g_continuous_active || (g_pending_frames > 0u);
     d20:	4b06      	ldr	r3, [pc, #24]	@ (d3c <capture_is_active+0x1c>)
     d22:	781b      	ldrb	r3, [r3, #0]
     d24:	2b00      	cmp	r3, #0
     d26:	d105      	bne.n	d34 <capture_is_active+0x14>
     d28:	4b05      	ldr	r3, [pc, #20]	@ (d40 <capture_is_active+0x20>)
     d2a:	681b      	ldr	r3, [r3, #0]
     d2c:	2b00      	cmp	r3, #0
     d2e:	d003      	beq.n	d38 <capture_is_active+0x18>
     d30:	2001      	movs	r0, #1
     d32:	e000      	b.n	d36 <capture_is_active+0x16>
     d34:	2001      	movs	r0, #1
}
     d36:	4770      	bx	lr
    return g_continuous_active || (g_pending_frames > 0u);
     d38:	2000      	movs	r0, #0
     d3a:	e7fc      	b.n	d36 <capture_is_active+0x16>
     d3c:	10000000 	.word	0x10000000
     d40:	100002cc 	.word	0x100002cc

00000d44 <sct_halt>:

static void sct_halt(void)
{
    SCT0->CTRL |= SCT_CTRLL_HALT_L_MASK;
     d44:	4a02      	ldr	r2, [pc, #8]	@ (d50 <sct_halt+0xc>)
     d46:	6853      	ldr	r3, [r2, #4]
     d48:	2104      	movs	r1, #4
     d4a:	430b      	orrs	r3, r1
     d4c:	6053      	str	r3, [r2, #4]
}
     d4e:	4770      	bx	lr
     d50:	50004000 	.word	0x50004000

00000d54 <sct_run>:

static void sct_run(void)
{
    SCT0->CTRL &= ~SCT_CTRLL_HALT_L_MASK;
     d54:	4a02      	ldr	r2, [pc, #8]	@ (d60 <sct_run+0xc>)
     d56:	6853      	ldr	r3, [r2, #4]
     d58:	2104      	movs	r1, #4
     d5a:	438b      	bics	r3, r1
     d5c:	6053      	str	r3, [r2, #4]
}
     d5e:	4770      	bx	lr
     d60:	50004000 	.word	0x50004000

00000d64 <sct_reset_block>:

static void sct_reset_block(void)
{
     d64:	b510      	push	{r4, lr}
    SYSCON->SYSAHBCLKCTRL |= mask;
     d66:	4b13      	ldr	r3, [pc, #76]	@ (db4 <sct_reset_block+0x50>)
     d68:	2080      	movs	r0, #128	@ 0x80
     d6a:	5819      	ldr	r1, [r3, r0]
     d6c:	2280      	movs	r2, #128	@ 0x80
     d6e:	0052      	lsls	r2, r2, #1
     d70:	4311      	orrs	r1, r2
     d72:	5019      	str	r1, [r3, r0]
    SYSCON->PRESETCTRL &= ~mask;
     d74:	6859      	ldr	r1, [r3, #4]
     d76:	4810      	ldr	r0, [pc, #64]	@ (db8 <sct_reset_block+0x54>)
     d78:	4001      	ands	r1, r0
     d7a:	6059      	str	r1, [r3, #4]
    SYSCON->PRESETCTRL |= mask;
     d7c:	6859      	ldr	r1, [r3, #4]
     d7e:	430a      	orrs	r2, r1
     d80:	605a      	str	r2, [r3, #4]
    enable_clock(SYSCON_SYSAHBCLKCTRL_SCT_MASK);
    peripheral_reset(SYSCON_PRESETCTRL_SCT_RST_N_MASK);
    sct_halt();
     d82:	f7ff ffdf 	bl	d44 <sct_halt>
    SCT0->CTRL |= SCT_CTRLL_CLRCTR_L_MASK;
     d86:	4b0d      	ldr	r3, [pc, #52]	@ (dbc <sct_reset_block+0x58>)
     d88:	685a      	ldr	r2, [r3, #4]
     d8a:	2108      	movs	r1, #8
     d8c:	430a      	orrs	r2, r1
     d8e:	605a      	str	r2, [r3, #4]
    SCT0->CTRL &= ~SCT_CTRLL_CLRCTR_L_MASK;
     d90:	685a      	ldr	r2, [r3, #4]
     d92:	438a      	bics	r2, r1
     d94:	605a      	str	r2, [r3, #4]
    SCT0->CONFIG = SCT_CONFIG_UNIFY(1u) | SCT_CONFIG_AUTOLIMIT_L(1u);
     d96:	4a0a      	ldr	r2, [pc, #40]	@ (dc0 <sct_reset_block+0x5c>)
     d98:	601a      	str	r2, [r3, #0]
    SCT0->REGMODE = 0u;
     d9a:	2200      	movs	r2, #0
     d9c:	64da      	str	r2, [r3, #76]	@ 0x4c
    SCT0->OUTPUTDIRCTRL = 0u;
     d9e:	655a      	str	r2, [r3, #84]	@ 0x54
    SCT0->RES = 1u << 0;
     da0:	3907      	subs	r1, #7
     da2:	6599      	str	r1, [r3, #88]	@ 0x58
    SCT0->EVFLAG = 0xFFFFFFFFu;
     da4:	31f3      	adds	r1, #243	@ 0xf3
     da6:	2001      	movs	r0, #1
     da8:	4240      	negs	r0, r0
     daa:	5058      	str	r0, [r3, r1]
    SCT0->EVEN = 0u;
     dac:	3904      	subs	r1, #4
     dae:	505a      	str	r2, [r3, r1]
}
     db0:	bd10      	pop	{r4, pc}
     db2:	46c0      	nop			@ (mov r8, r8)
     db4:	40048000 	.word	0x40048000
     db8:	fffffeff 	.word	0xfffffeff
     dbc:	50004000 	.word	0x50004000
     dc0:	00020001 	.word	0x00020001

00000dc4 <sct_configure_match_event>:

static void sct_configure_match_event(uint32_t event_index, uint32_t match_index)
{
    SCT0->EV[event_index].CTRL = SCT_EV_CTRL_MATCHSEL(match_index) | SCT_EV_CTRL_COMBMODE(1u);
     dc4:	230f      	movs	r3, #15
     dc6:	400b      	ands	r3, r1
     dc8:	2180      	movs	r1, #128	@ 0x80
     dca:	0149      	lsls	r1, r1, #5
     dcc:	4319      	orrs	r1, r3
     dce:	3060      	adds	r0, #96	@ 0x60
     dd0:	00c0      	lsls	r0, r0, #3
     dd2:	4b03      	ldr	r3, [pc, #12]	@ (de0 <sct_configure_match_event+0x1c>)
     dd4:	18c3      	adds	r3, r0, r3
     dd6:	6059      	str	r1, [r3, #4]
    SCT0->EV[event_index].STATE = SCT_EV_STATE_STATEMSKn(1u);
     dd8:	4b01      	ldr	r3, [pc, #4]	@ (de0 <sct_configure_match_event+0x1c>)
     dda:	2201      	movs	r2, #1
     ddc:	50c2      	str	r2, [r0, r3]
}
     dde:	4770      	bx	lr
     de0:	50004000 	.word	0x50004000

00000de4 <sct_set_match>:

static void sct_set_match(uint32_t match_index, uint32_t value)
{
    SCT0->MATCH[match_index] = value;
     de4:	4a04      	ldr	r2, [pc, #16]	@ (df8 <sct_set_match+0x14>)
     de6:	0003      	movs	r3, r0
     de8:	3340      	adds	r3, #64	@ 0x40
     dea:	009b      	lsls	r3, r3, #2
     dec:	5099      	str	r1, [r3, r2]
    SCT0->MATCHREL[match_index] = value;
     dee:	3080      	adds	r0, #128	@ 0x80
     df0:	0080      	lsls	r0, r0, #2
     df2:	5081      	str	r1, [r0, r2]
}
     df4:	4770      	bx	lr
     df6:	46c0      	nop			@ (mov r8, r8)
     df8:	50004000 	.word	0x50004000

00000dfc <setup_sct_for_transducer>:

static void setup_sct_for_transducer(void)
{
     dfc:	b510      	push	{r4, lr}
    const uint32_t half_period_ticks = SystemCoreClock / (g_config.tx_frequency_hz * 2u);
     dfe:	4b1a      	ldr	r3, [pc, #104]	@ (e68 <setup_sct_for_transducer+0x6c>)
     e00:	6818      	ldr	r0, [r3, #0]
     e02:	4b1a      	ldr	r3, [pc, #104]	@ (e6c <setup_sct_for_transducer+0x70>)
     e04:	6899      	ldr	r1, [r3, #8]
     e06:	0049      	lsls	r1, r1, #1
     e08:	f7ff fb38 	bl	47c <__udivsi3>
     e0c:	0004      	movs	r4, r0

    sct_reset_block();
     e0e:	f7ff ffa9 	bl	d64 <sct_reset_block>
    sct_assign_transducer_pins();
     e12:	f7ff fe61 	bl	ad8 <sct_assign_transducer_pins>

    sct_configure_match_event(0u, 0u);
     e16:	2100      	movs	r1, #0
     e18:	2000      	movs	r0, #0
     e1a:	f7ff ffd3 	bl	dc4 <sct_configure_match_event>
    sct_configure_match_event(2u, 2u);
     e1e:	2102      	movs	r1, #2
     e20:	2002      	movs	r0, #2
     e22:	f7ff ffcf 	bl	dc4 <sct_configure_match_event>

    sct_set_match(2u, half_period_ticks);
     e26:	0021      	movs	r1, r4
     e28:	2002      	movs	r0, #2
     e2a:	f7ff ffdb 	bl	de4 <sct_set_match>
    sct_set_match(0u, half_period_ticks * 2u);
     e2e:	0061      	lsls	r1, r4, #1
     e30:	2000      	movs	r0, #0
     e32:	f7ff ffd7 	bl	de4 <sct_set_match>

    SCT0->OUT[0].SET = 1u << 0;
     e36:	4b0e      	ldr	r3, [pc, #56]	@ (e70 <setup_sct_for_transducer+0x74>)
     e38:	2201      	movs	r2, #1
     e3a:	21a0      	movs	r1, #160	@ 0xa0
     e3c:	00c9      	lsls	r1, r1, #3
     e3e:	505a      	str	r2, [r3, r1]
    SCT0->OUT[0].CLR = 1u << 2;
     e40:	2104      	movs	r1, #4
     e42:	480c      	ldr	r0, [pc, #48]	@ (e74 <setup_sct_for_transducer+0x78>)
     e44:	5019      	str	r1, [r3, r0]
    SCT0->OUT[1].SET = 1u << 2;
     e46:	3004      	adds	r0, #4
     e48:	5019      	str	r1, [r3, r0]
    SCT0->OUT[1].CLR = 1u << 0;
     e4a:	490b      	ldr	r1, [pc, #44]	@ (e78 <setup_sct_for_transducer+0x7c>)
     e4c:	505a      	str	r2, [r3, r1]

    SCT0->EVFLAG = 0xFFFFFFFFu;
     e4e:	21f4      	movs	r1, #244	@ 0xf4
     e50:	2001      	movs	r0, #1
     e52:	4240      	negs	r0, r0
     e54:	5058      	str	r0, [r3, r1]
    SCT0->EVEN = 1u << 0;
     e56:	3904      	subs	r1, #4
     e58:	505a      	str	r2, [r3, r1]
 */
__STATIC_INLINE void __NVIC_ClearPendingIRQ(IRQn_Type IRQn)
{
  if ((int32_t)(IRQn) >= 0)
  {
    NVIC->ICPR[0U] = (uint32_t)(1UL << (((uint32_t)IRQn) & 0x1FUL));
     e5a:	4b08      	ldr	r3, [pc, #32]	@ (e7c <setup_sct_for_transducer+0x80>)
     e5c:	2280      	movs	r2, #128	@ 0x80
     e5e:	0092      	lsls	r2, r2, #2
     e60:	3190      	adds	r1, #144	@ 0x90
     e62:	505a      	str	r2, [r3, r1]
    NVIC->ISER[0U] = (uint32_t)(1UL << (((uint32_t)IRQn) & 0x1FUL));
     e64:	601a      	str	r2, [r3, #0]
    NVIC_ClearPendingIRQ(SCT0_IRQn);
    NVIC_EnableIRQ(SCT0_IRQn);
}
     e66:	bd10      	pop	{r4, pc}
     e68:	10000020 	.word	0x10000020
     e6c:	10000004 	.word	0x10000004
     e70:	50004000 	.word	0x50004000
     e74:	00000504 	.word	0x00000504
     e78:	0000050c 	.word	0x0000050c
     e7c:	e000e100 	.word	0xe000e100

00000e80 <setup_sct_for_adc>:

static void setup_sct_for_adc(void)
{
     e80:	b510      	push	{r4, lr}
    const uint32_t half_period_ticks = SystemCoreClock / (g_config.adc_sample_rate_hz * 2u);
     e82:	4b16      	ldr	r3, [pc, #88]	@ (edc <setup_sct_for_adc+0x5c>)
     e84:	6818      	ldr	r0, [r3, #0]
     e86:	4b16      	ldr	r3, [pc, #88]	@ (ee0 <setup_sct_for_adc+0x60>)
     e88:	6919      	ldr	r1, [r3, #16]
     e8a:	0049      	lsls	r1, r1, #1
     e8c:	f7ff faf6 	bl	47c <__udivsi3>
     e90:	0004      	movs	r4, r0

    sct_reset_block();
     e92:	f7ff ff67 	bl	d64 <sct_reset_block>

    sct_configure_match_event(0u, 0u);
     e96:	2100      	movs	r1, #0
     e98:	2000      	movs	r0, #0
     e9a:	f7ff ff93 	bl	dc4 <sct_configure_match_event>
    sct_configure_match_event(2u, 2u);
     e9e:	2102      	movs	r1, #2
     ea0:	2002      	movs	r0, #2
     ea2:	f7ff ff8f 	bl	dc4 <sct_configure_match_event>

    sct_set_match(2u, half_period_ticks);
     ea6:	0021      	movs	r1, r4
     ea8:	2002      	movs	r0, #2
     eaa:	f7ff ff9b 	bl	de4 <sct_set_match>
    sct_set_match(0u, half_period_ticks * 2u);
     eae:	0061      	lsls	r1, r4, #1
     eb0:	2000      	movs	r0, #0
     eb2:	f7ff ff97 	bl	de4 <sct_set_match>

    SCT0->OUT[3].SET = 1u << 0;
     eb6:	4b0b      	ldr	r3, [pc, #44]	@ (ee4 <setup_sct_for_adc+0x64>)
     eb8:	22a3      	movs	r2, #163	@ 0xa3
     eba:	00d2      	lsls	r2, r2, #3
     ebc:	2101      	movs	r1, #1
     ebe:	5099      	str	r1, [r3, r2]
    SCT0->OUT[3].CLR = 1u << 2;
     ec0:	4a09      	ldr	r2, [pc, #36]	@ (ee8 <setup_sct_for_adc+0x68>)
     ec2:	3103      	adds	r1, #3
     ec4:	5099      	str	r1, [r3, r2]
    NVIC->ICER[0U] = (uint32_t)(1UL << (((uint32_t)IRQn) & 0x1FUL));
     ec6:	4a09      	ldr	r2, [pc, #36]	@ (eec <setup_sct_for_adc+0x6c>)
     ec8:	2380      	movs	r3, #128	@ 0x80
     eca:	31fd      	adds	r1, #253	@ 0xfd
     ecc:	31ff      	adds	r1, #255	@ 0xff
     ece:	50d1      	str	r1, [r2, r3]
  \details Acts as a special kind of Data Memory Barrier.
           It completes when all explicit memory accesses before this instruction complete.
 */
__STATIC_FORCEINLINE void __DSB(void)
{
  __ASM volatile ("dsb 0xF":::"memory");
     ed0:	f3bf 8f4f 	dsb	sy
  __ASM volatile ("isb 0xF":::"memory");
     ed4:	f3bf 8f6f 	isb	sy

    NVIC_DisableIRQ(SCT0_IRQn);
}
     ed8:	bd10      	pop	{r4, pc}
     eda:	46c0      	nop			@ (mov r8, r8)
     edc:	10000020 	.word	0x10000020
     ee0:	10000004 	.word	0x10000004
     ee4:	50004000 	.word	0x50004000
     ee8:	0000051c 	.word	0x0000051c
     eec:	e000e100 	.word	0xe000e100

00000ef0 <dma_xfercfg>:
{
    uint32_t cfg = DMA_CHANNEL_XFERCFG_CFGVALID(1u) |
                   DMA_CHANNEL_XFERCFG_WIDTH(1u) |
                   DMA_CHANNEL_XFERCFG_SRCINC(0u) |
                   DMA_CHANNEL_XFERCFG_DSTINC(1u) |
                   DMA_CHANNEL_XFERCFG_XFERCOUNT(transfer_count - 1u);
     ef0:	3801      	subs	r0, #1
     ef2:	0403      	lsls	r3, r0, #16
     ef4:	4806      	ldr	r0, [pc, #24]	@ (f10 <dma_xfercfg+0x20>)
     ef6:	4003      	ands	r3, r0
    uint32_t cfg = DMA_CHANNEL_XFERCFG_CFGVALID(1u) |
     ef8:	4806      	ldr	r0, [pc, #24]	@ (f14 <dma_xfercfg+0x24>)
     efa:	4318      	orrs	r0, r3

    if (reload) {
     efc:	2900      	cmp	r1, #0
     efe:	d001      	beq.n	f04 <dma_xfercfg+0x14>
        cfg |= DMA_CHANNEL_XFERCFG_RELOAD(1u);
     f00:	4805      	ldr	r0, [pc, #20]	@ (f18 <dma_xfercfg+0x28>)
     f02:	4318      	orrs	r0, r3
    }
    if (interrupt_a) {
     f04:	2a00      	cmp	r2, #0
     f06:	d001      	beq.n	f0c <dma_xfercfg+0x1c>
        cfg |= DMA_CHANNEL_XFERCFG_SETINTA(1u);
     f08:	2310      	movs	r3, #16
     f0a:	4318      	orrs	r0, r3
    }

    return cfg;
}
     f0c:	4770      	bx	lr
     f0e:	46c0      	nop			@ (mov r8, r8)
     f10:	03ff0000 	.word	0x03ff0000
     f14:	00004101 	.word	0x00004101
     f18:	00004103 	.word	0x00004103

00000f1c <setup_dma_for_adc>:

static void setup_dma_for_adc(void)
{
     f1c:	b5f0      	push	{r4, r5, r6, r7, lr}
     f1e:	46c6      	mov	lr, r8
     f20:	b500      	push	{lr}
    SYSCON->SYSAHBCLKCTRL |= mask;
     f22:	4b2a      	ldr	r3, [pc, #168]	@ (fcc <setup_dma_for_adc+0xb0>)
     f24:	2080      	movs	r0, #128	@ 0x80
     f26:	5819      	ldr	r1, [r3, r0]
     f28:	2280      	movs	r2, #128	@ 0x80
     f2a:	0592      	lsls	r2, r2, #22
     f2c:	4311      	orrs	r1, r2
     f2e:	5019      	str	r1, [r3, r0]
    SYSCON->PRESETCTRL &= ~mask;
     f30:	6859      	ldr	r1, [r3, #4]
     f32:	4827      	ldr	r0, [pc, #156]	@ (fd0 <setup_dma_for_adc+0xb4>)
     f34:	4001      	ands	r1, r0
     f36:	6059      	str	r1, [r3, #4]
    SYSCON->PRESETCTRL |= mask;
     f38:	6859      	ldr	r1, [r3, #4]
     f3a:	430a      	orrs	r2, r1
     f3c:	605a      	str	r2, [r3, #4]
    const uint32_t channel_mask = dma_channel_mask(DMA_CHANNEL_ADC);

    enable_clock(SYSCON_SYSAHBCLKCTRL_DMA_MASK);
    peripheral_reset(SYSCON_PRESETCTRL_DMA_RST_N_MASK);

    g_dma_desc_c.xfercfg = dma_xfercfg(ULTRASONIC_DMA_BUFFER_SIZE, false, true);
     f3e:	2580      	movs	r5, #128	@ 0x80
     f40:	00ed      	lsls	r5, r5, #3
     f42:	2201      	movs	r2, #1
     f44:	2100      	movs	r1, #0
     f46:	0028      	movs	r0, r5
     f48:	f7ff ffd2 	bl	ef0 <dma_xfercfg>
     f4c:	4f21      	ldr	r7, [pc, #132]	@ (fd4 <setup_dma_for_adc+0xb8>)
     f4e:	6038      	str	r0, [r7, #0]
    g_dma_desc_c.source = sample_reg;
     f50:	4b21      	ldr	r3, [pc, #132]	@ (fd8 <setup_dma_for_adc+0xbc>)
     f52:	4698      	mov	r8, r3
     f54:	607b      	str	r3, [r7, #4]
    g_dma_desc_c.dest = (uint32_t)&g_adc_buffer[(ULTRASONIC_DMA_BUFFER_SIZE * 3u) - 1u];
     f56:	4c21      	ldr	r4, [pc, #132]	@ (fdc <setup_dma_for_adc+0xc0>)
     f58:	60bc      	str	r4, [r7, #8]
    g_dma_desc_c.next = 0u;
     f5a:	2600      	movs	r6, #0
     f5c:	60fe      	str	r6, [r7, #12]

    g_dma_desc_b.xfercfg = dma_xfercfg(ULTRASONIC_DMA_BUFFER_SIZE, true, true);
     f5e:	2201      	movs	r2, #1
     f60:	2101      	movs	r1, #1
     f62:	0028      	movs	r0, r5
     f64:	f7ff ffc4 	bl	ef0 <dma_xfercfg>
     f68:	4b1d      	ldr	r3, [pc, #116]	@ (fe0 <setup_dma_for_adc+0xc4>)
     f6a:	6018      	str	r0, [r3, #0]
    g_dma_desc_b.source = sample_reg;
     f6c:	4642      	mov	r2, r8
     f6e:	605a      	str	r2, [r3, #4]
    g_dma_desc_b.dest = (uint32_t)&g_adc_buffer[(ULTRASONIC_DMA_BUFFER_SIZE * 2u) - 1u];
     f70:	4a1c      	ldr	r2, [pc, #112]	@ (fe4 <setup_dma_for_adc+0xc8>)
     f72:	18a2      	adds	r2, r4, r2
     f74:	609a      	str	r2, [r3, #8]
    g_dma_desc_b.next = (uint32_t)&g_dma_desc_c;
     f76:	60df      	str	r7, [r3, #12]

    g_dma_table[DMA_CHANNEL_ADC].xfercfg = dma_xfercfg(ULTRASONIC_DMA_BUFFER_SIZE, true, true);
     f78:	491b      	ldr	r1, [pc, #108]	@ (fe8 <setup_dma_for_adc+0xcc>)
     f7a:	6008      	str	r0, [r1, #0]
    g_dma_table[DMA_CHANNEL_ADC].source = sample_reg;
     f7c:	4642      	mov	r2, r8
     f7e:	604a      	str	r2, [r1, #4]
    g_dma_table[DMA_CHANNEL_ADC].dest = (uint32_t)&g_adc_buffer[ULTRASONIC_DMA_BUFFER_SIZE - 1u];
     f80:	4a1a      	ldr	r2, [pc, #104]	@ (fec <setup_dma_for_adc+0xd0>)
     f82:	4694      	mov	ip, r2
     f84:	4464      	add	r4, ip
     f86:	608c      	str	r4, [r1, #8]
    g_dma_table[DMA_CHANNEL_ADC].next = (uint32_t)&g_dma_desc_b;
     f88:	60cb      	str	r3, [r1, #12]

    DMA0->CTRL = DMA_CTRL_ENABLE(1u);
     f8a:	4b19      	ldr	r3, [pc, #100]	@ (ff0 <setup_dma_for_adc+0xd4>)
     f8c:	2201      	movs	r2, #1
     f8e:	601a      	str	r2, [r3, #0]
    DMA0->SRAMBASE = DMA_SRAMBASE_OFFSET(((uint32_t)g_dma_table) >> DMA_SRAMBASE_OFFSET_SHIFT);
     f90:	0a48      	lsrs	r0, r1, #9
     f92:	0240      	lsls	r0, r0, #9
     f94:	6098      	str	r0, [r3, #8]

    DMA0->COMMON[0].ENABLECLR = channel_mask;
     f96:	629a      	str	r2, [r3, #40]	@ 0x28
    DMA0->COMMON[0].ABORT = channel_mask;
     f98:	679a      	str	r2, [r3, #120]	@ 0x78
    DMA0->COMMON[0].INTA = channel_mask;
     f9a:	659a      	str	r2, [r3, #88]	@ 0x58
    DMA0->COMMON[0].INTB = channel_mask;
     f9c:	661a      	str	r2, [r3, #96]	@ 0x60
    DMA0->COMMON[0].ERRINT = channel_mask;
     f9e:	641a      	str	r2, [r3, #64]	@ 0x40
    DMA0->COMMON[0].INTENSET = channel_mask;
     fa0:	649a      	str	r2, [r3, #72]	@ 0x48

    DMA0->CHANNEL[DMA_CHANNEL_ADC].CFG =
     fa2:	2052      	movs	r0, #82	@ 0x52
     fa4:	5158      	str	r0, [r3, r5]
        DMA_CHANNEL_CFG_TRIGPOL(1u) |
        DMA_CHANNEL_CFG_TRIGTYPE(0u) |
        DMA_CHANNEL_CFG_TRIGBURST(1u) |
        DMA_CHANNEL_CFG_BURSTPOWER(0u) |
        DMA_CHANNEL_CFG_CHPRIORITY(0u);
    DMA0->CHANNEL[DMA_CHANNEL_ADC].XFERCFG = g_dma_table[DMA_CHANNEL_ADC].xfercfg;
     fa6:	6808      	ldr	r0, [r1, #0]
     fa8:	2181      	movs	r1, #129	@ 0x81
     faa:	00c9      	lsls	r1, r1, #3
     fac:	5058      	str	r0, [r3, r1]

    INPUTMUX->DMA_ITRIG_INMUX[DMA_CHANNEL_ADC] = INPUTMUX_DMA_ITRIG_INMUX_INP(0u);
     fae:	4911      	ldr	r1, [pc, #68]	@ (ff4 <setup_dma_for_adc+0xd8>)
     fb0:	600e      	str	r6, [r1, #0]

    DMA0->COMMON[0].SETVALID = channel_mask;
     fb2:	669a      	str	r2, [r3, #104]	@ 0x68
    DMA0->COMMON[0].ENABLESET = channel_mask;
     fb4:	621a      	str	r2, [r3, #32]
    NVIC->ICPR[0U] = (uint32_t)(1UL << (((uint32_t)IRQn) & 0x1FUL));
     fb6:	4b10      	ldr	r3, [pc, #64]	@ (ff8 <setup_dma_for_adc+0xdc>)
     fb8:	2280      	movs	r2, #128	@ 0x80
     fba:	0352      	lsls	r2, r2, #13
     fbc:	21c0      	movs	r1, #192	@ 0xc0
     fbe:	0049      	lsls	r1, r1, #1
     fc0:	505a      	str	r2, [r3, r1]
    NVIC->ISER[0U] = (uint32_t)(1UL << (((uint32_t)IRQn) & 0x1FUL));
     fc2:	601a      	str	r2, [r3, #0]

    NVIC_ClearPendingIRQ(DMA0_IRQn);
    NVIC_EnableIRQ(DMA0_IRQn);
}
     fc4:	bc80      	pop	{r7}
     fc6:	46b8      	mov	r8, r7
     fc8:	bdf0      	pop	{r4, r5, r6, r7, pc}
     fca:	46c0      	nop			@ (mov r8, r8)
     fcc:	40048000 	.word	0x40048000
     fd0:	dfffffff 	.word	0xdfffffff
     fd4:	10001ae0 	.word	0x10001ae0
     fd8:	4001c02c 	.word	0x4001c02c
     fdc:	10001ad6 	.word	0x10001ad6
     fe0:	10001af0 	.word	0x10001af0
     fe4:	fffff800 	.word	0xfffff800
     fe8:	10001c00 	.word	0x10001c00
     fec:	fffff000 	.word	0xfffff000
     ff0:	50008000 	.word	0x50008000
     ff4:	40028000 	.word	0x40028000
     ff8:	e000e100 	.word	0xe000e100

00000ffc <adc_init>:

static void adc_init(void)
{
     ffc:	b510      	push	{r4, lr}
    SYSCON->SYSAHBCLKCTRL |= mask;
     ffe:	4b1a      	ldr	r3, [pc, #104]	@ (1068 <adc_init+0x6c>)
    1000:	2180      	movs	r1, #128	@ 0x80
    1002:	5858      	ldr	r0, [r3, r1]
    1004:	4a19      	ldr	r2, [pc, #100]	@ (106c <adc_init+0x70>)
    1006:	4302      	orrs	r2, r0
    1008:	505a      	str	r2, [r3, r1]
    SYSCON->PRESETCTRL &= ~mask;
    100a:	685a      	ldr	r2, [r3, #4]
    100c:	4918      	ldr	r1, [pc, #96]	@ (1070 <adc_init+0x74>)
    100e:	400a      	ands	r2, r1
    1010:	605a      	str	r2, [r3, #4]
    SYSCON->PRESETCTRL |= mask;
    1012:	6859      	ldr	r1, [r3, #4]
    1014:	2280      	movs	r2, #128	@ 0x80
    1016:	0452      	lsls	r2, r2, #17
    1018:	430a      	orrs	r2, r1
    101a:	605a      	str	r2, [r3, #4]
    enable_clock(SYSCON_SYSAHBCLKCTRL_IOCON_MASK |
                 SYSCON_SYSAHBCLKCTRL_SWM_MASK |
                 SYSCON_SYSAHBCLKCTRL_ADC_MASK);
    peripheral_reset(SYSCON_PRESETCTRL_ADC_RST_N_MASK);

    SYSCON->PDAWAKECFG &= ~SYSCON_PDAWAKECFG_ADC_PD_MASK;
    101c:	218d      	movs	r1, #141	@ 0x8d
    101e:	0089      	lsls	r1, r1, #2
    1020:	585a      	ldr	r2, [r3, r1]
    1022:	2010      	movs	r0, #16
    1024:	4382      	bics	r2, r0
    1026:	505a      	str	r2, [r3, r1]
    SYSCON->PDRUNCFG &= ~SYSCON_PDRUNCFG_ADC_PD_MASK;
    1028:	3104      	adds	r1, #4
    102a:	585a      	ldr	r2, [r3, r1]
    102c:	4382      	bics	r2, r0
    102e:	505a      	str	r2, [r3, r1]

    IOCON->PIO[IOCON_INDEX_PIO0_23] =
        (IOCON->PIO[IOCON_INDEX_PIO0_23] & ~IOCON_PIO_MODE_MASK) |
    1030:	4a10      	ldr	r2, [pc, #64]	@ (1074 <adc_init+0x78>)
    1032:	6e53      	ldr	r3, [r2, #100]	@ 0x64
    1034:	2118      	movs	r1, #24
    1036:	438b      	bics	r3, r1
    IOCON->PIO[IOCON_INDEX_PIO0_23] =
    1038:	6653      	str	r3, [r2, #100]	@ 0x64
        IOCON_PIO_MODE(0u);

    adc3_enable_fixed_pin();
    103a:	f7ff fd5f 	bl	afc <adc3_enable_fixed_pin>

    ADC0->CTRL = ADC_CTRL_CLKDIV(0u);
    103e:	4b0e      	ldr	r3, [pc, #56]	@ (1078 <adc_init+0x7c>)
    1040:	2200      	movs	r2, #0
    1042:	601a      	str	r2, [r3, #0]
    ADC0->CTRL |= ADC_CTRL_CALMODE(1u);
    1044:	6819      	ldr	r1, [r3, #0]
    1046:	2280      	movs	r2, #128	@ 0x80
    1048:	05d2      	lsls	r2, r2, #23
    104a:	430a      	orrs	r2, r1
    104c:	601a      	str	r2, [r3, #0]
    while ((ADC0->CTRL & ADC_CTRL_CALMODE_MASK) != 0u) {
    104e:	4b0a      	ldr	r3, [pc, #40]	@ (1078 <adc_init+0x7c>)
    1050:	681b      	ldr	r3, [r3, #0]
    1052:	005b      	lsls	r3, r3, #1
    1054:	d4fb      	bmi.n	104e <adc_init+0x52>
    }

    ADC0->SEQ_CTRL[ADC_SEQUENCE_A] =
    1056:	4b08      	ldr	r3, [pc, #32]	@ (1078 <adc_init+0x7c>)
    1058:	4a08      	ldr	r2, [pc, #32]	@ (107c <adc_init+0x80>)
    105a:	609a      	str	r2, [r3, #8]
        ADC_SEQ_CTRL_CHANNELS(1u << ULTRASONIC_ADC_CHANNEL) |
        ADC_SEQ_CTRL_TRIGGER(3u) |
        ADC_SEQ_CTRL_MODE(1u) |
        ADC_SEQ_CTRL_SEQ_ENA(1u);
    ADC0->INTEN = ADC_INTEN_SEQA_INTEN(1u);
    105c:	2201      	movs	r2, #1
    105e:	665a      	str	r2, [r3, #100]	@ 0x64
    ADC0->FLAGS = 0xFFFFFFFFu;
    1060:	3a02      	subs	r2, #2
    1062:	669a      	str	r2, [r3, #104]	@ 0x68
}
    1064:	bd10      	pop	{r4, pc}
    1066:	46c0      	nop			@ (mov r8, r8)
    1068:	40048000 	.word	0x40048000
    106c:	01040080 	.word	0x01040080
    1070:	feffffff 	.word	0xfeffffff
    1074:	40044000 	.word	0x40044000
    1078:	4001c000 	.word	0x4001c000
    107c:	c0003008 	.word	0xc0003008

00001080 <build_envelope_frame>:

    g_output_sample_count = ULTRASONIC_SAMPLE_COUNT;
}

static void build_envelope_frame(void)
{
    1080:	b570      	push	{r4, r5, r6, lr}
    uint32_t phase_accumulator = 0u;
    uint32_t write_index = 0u;
    uint16_t current_peak = 0u;
    bool have_peak = false;

    for (uint32_t i = 0u; i < ULTRASONIC_SAMPLE_COUNT; ++i) {
    1082:	2000      	movs	r0, #0
    bool have_peak = false;
    1084:	2600      	movs	r6, #0
    uint16_t current_peak = 0u;
    1086:	2400      	movs	r4, #0
    uint32_t write_index = 0u;
    1088:	2500      	movs	r5, #0
    uint32_t phase_accumulator = 0u;
    108a:	2300      	movs	r3, #0
    for (uint32_t i = 0u; i < ULTRASONIC_SAMPLE_COUNT; ++i) {
    108c:	e00d      	b.n	10aa <build_envelope_frame+0x2a>
        const uint16_t sample = g_adc_buffer[i];
        const uint16_t amplitude = (sample >= bias) ? (sample - bias) : (bias - sample);
    108e:	2180      	movs	r1, #128	@ 0x80
    1090:	0109      	lsls	r1, r1, #4
    1092:	1a89      	subs	r1, r1, r2
    1094:	b289      	uxth	r1, r1
    1096:	e017      	b.n	10c8 <build_envelope_frame+0x48>
        if (amplitude > current_peak) {
            current_peak = amplitude;
        }
        have_peak = true;

        phase_accumulator += g_config.tx_frequency_hz;
    1098:	4a19      	ldr	r2, [pc, #100]	@ (1100 <build_envelope_frame+0x80>)
    109a:	6894      	ldr	r4, [r2, #8]
    109c:	191b      	adds	r3, r3, r4
        if (phase_accumulator >= g_config.adc_sample_rate_hz) {
    109e:	6912      	ldr	r2, [r2, #16]
    10a0:	429a      	cmp	r2, r3
    10a2:	d915      	bls.n	10d0 <build_envelope_frame+0x50>
        have_peak = true;
    10a4:	2601      	movs	r6, #1
    for (uint32_t i = 0u; i < ULTRASONIC_SAMPLE_COUNT; ++i) {
    10a6:	3001      	adds	r0, #1
    10a8:	000c      	movs	r4, r1
    10aa:	22c0      	movs	r2, #192	@ 0xc0
    10ac:	0112      	lsls	r2, r2, #4
    10ae:	4290      	cmp	r0, r2
    10b0:	d21a      	bcs.n	10e8 <build_envelope_frame+0x68>
        const uint16_t sample = g_adc_buffer[i];
    10b2:	4a14      	ldr	r2, [pc, #80]	@ (1104 <build_envelope_frame+0x84>)
    10b4:	0041      	lsls	r1, r0, #1
    10b6:	5a8a      	ldrh	r2, [r1, r2]
        const uint16_t amplitude = (sample >= bias) ? (sample - bias) : (bias - sample);
    10b8:	2180      	movs	r1, #128	@ 0x80
    10ba:	0109      	lsls	r1, r1, #4
    10bc:	428a      	cmp	r2, r1
    10be:	d3e6      	bcc.n	108e <build_envelope_frame+0xe>
    10c0:	4911      	ldr	r1, [pc, #68]	@ (1108 <build_envelope_frame+0x88>)
    10c2:	468c      	mov	ip, r1
    10c4:	4462      	add	r2, ip
    10c6:	b291      	uxth	r1, r2
        if (amplitude > current_peak) {
    10c8:	428c      	cmp	r4, r1
    10ca:	d3e5      	bcc.n	1098 <build_envelope_frame+0x18>
    10cc:	0021      	movs	r1, r4
    10ce:	e7e3      	b.n	1098 <build_envelope_frame+0x18>
            g_adc_buffer[write_index++] = current_peak;
    10d0:	1c6e      	adds	r6, r5, #1
    10d2:	4c0c      	ldr	r4, [pc, #48]	@ (1104 <build_envelope_frame+0x84>)
    10d4:	006d      	lsls	r5, r5, #1
    10d6:	5329      	strh	r1, [r5, r4]
            current_peak = 0u;
            have_peak = false;
            while (phase_accumulator >= g_config.adc_sample_rate_hz) {
    10d8:	e000      	b.n	10dc <build_envelope_frame+0x5c>
                phase_accumulator -= g_config.adc_sample_rate_hz;
    10da:	1a9b      	subs	r3, r3, r2
            while (phase_accumulator >= g_config.adc_sample_rate_hz) {
    10dc:	429a      	cmp	r2, r3
    10de:	d9fc      	bls.n	10da <build_envelope_frame+0x5a>
            g_adc_buffer[write_index++] = current_peak;
    10e0:	0035      	movs	r5, r6
            have_peak = false;
    10e2:	2600      	movs	r6, #0
            current_peak = 0u;
    10e4:	2100      	movs	r1, #0
    10e6:	e7de      	b.n	10a6 <build_envelope_frame+0x26>
            }
        }
    }

    if (have_peak && write_index < ULTRASONIC_SAMPLE_COUNT) {
    10e8:	2e00      	cmp	r6, #0
    10ea:	d005      	beq.n	10f8 <build_envelope_frame+0x78>
    10ec:	4295      	cmp	r5, r2
    10ee:	d203      	bcs.n	10f8 <build_envelope_frame+0x78>
        g_adc_buffer[write_index++] = current_peak;
    10f0:	4b04      	ldr	r3, [pc, #16]	@ (1104 <build_envelope_frame+0x84>)
    10f2:	006a      	lsls	r2, r5, #1
    10f4:	52d4      	strh	r4, [r2, r3]
    10f6:	3501      	adds	r5, #1
    }

    g_output_sample_count = write_index;
    10f8:	4b04      	ldr	r3, [pc, #16]	@ (110c <build_envelope_frame+0x8c>)
    10fa:	601d      	str	r5, [r3, #0]
}
    10fc:	bd70      	pop	{r4, r5, r6, pc}
    10fe:	46c0      	nop			@ (mov r8, r8)
    1100:	10000004 	.word	0x10000004
    1104:	100002d8 	.word	0x100002d8
    1108:	fffff800 	.word	0xfffff800
    110c:	1000001c 	.word	0x1000001c

00001110 <crc16_ccitt_update>:
    uart_write_crlf();
}

static uint16_t crc16_ccitt_update(uint16_t crc, uint8_t data)
{
    crc ^= (uint16_t)data << 8u;
    1110:	0209      	lsls	r1, r1, #8
    1112:	4048      	eors	r0, r1
    for (uint32_t i = 0u; i < 8u; ++i) {
    1114:	2300      	movs	r3, #0
    1116:	e004      	b.n	1122 <crc16_ccitt_update+0x12>
        if ((crc & 0x8000u) != 0u) {
            crc = (uint16_t)((crc << 1u) ^ 0x1021u);
    1118:	0040      	lsls	r0, r0, #1
    111a:	b282      	uxth	r2, r0
    111c:	4805      	ldr	r0, [pc, #20]	@ (1134 <crc16_ccitt_update+0x24>)
    111e:	4050      	eors	r0, r2
    for (uint32_t i = 0u; i < 8u; ++i) {
    1120:	3301      	adds	r3, #1
    1122:	2b07      	cmp	r3, #7
    1124:	d805      	bhi.n	1132 <crc16_ccitt_update+0x22>
        if ((crc & 0x8000u) != 0u) {
    1126:	b202      	sxth	r2, r0
    1128:	2a00      	cmp	r2, #0
    112a:	dbf5      	blt.n	1118 <crc16_ccitt_update+0x8>
        } else {
            crc <<= 1u;
    112c:	0040      	lsls	r0, r0, #1
    112e:	b280      	uxth	r0, r0
    1130:	e7f6      	b.n	1120 <crc16_ccitt_update+0x10>
        }
    }
    return crc;
}
    1132:	4770      	bx	lr
    1134:	00001021 	.word	0x00001021

00001138 <apply_default_configuration>:
        break;
    }
}

static void apply_default_configuration(void)
{
    1138:	b530      	push	{r4, r5, lr}
    g_config = g_default_config;
    113a:	4b07      	ldr	r3, [pc, #28]	@ (1158 <apply_default_configuration+0x20>)
    113c:	4a07      	ldr	r2, [pc, #28]	@ (115c <apply_default_configuration+0x24>)
    113e:	0010      	movs	r0, r2
    1140:	c834      	ldmia	r0!, {r2, r4, r5}
    1142:	c334      	stmia	r3!, {r2, r4, r5}
    1144:	0019      	movs	r1, r3
    1146:	c81c      	ldmia	r0!, {r2, r3, r4}
    1148:	c11c      	stmia	r1!, {r2, r3, r4}
    g_continuous_active = false;
    114a:	4b05      	ldr	r3, [pc, #20]	@ (1160 <apply_default_configuration+0x28>)
    114c:	2200      	movs	r2, #0
    114e:	701a      	strb	r2, [r3, #0]
    g_pending_frames = 0u;
    1150:	4b04      	ldr	r3, [pc, #16]	@ (1164 <apply_default_configuration+0x2c>)
    1152:	601a      	str	r2, [r3, #0]
}
    1154:	bd30      	pop	{r4, r5, pc}
    1156:	46c0      	nop			@ (mov r8, r8)
    1158:	10000004 	.word	0x10000004
    115c:	000020ac 	.word	0x000020ac
    1160:	10000000 	.word	0x10000000
    1164:	100002cc 	.word	0x100002cc

00001168 <queue_completed_command>:

    emit_error("UNKNOWN");
}

static void queue_completed_command(void)
{
    1168:	b510      	push	{r4, lr}
    if (g_command_overflow) {
    116a:	4b14      	ldr	r3, [pc, #80]	@ (11bc <queue_completed_command+0x54>)
    116c:	781b      	ldrb	r3, [r3, #0]
    116e:	2b00      	cmp	r3, #0
    1170:	d111      	bne.n	1196 <queue_completed_command+0x2e>
        g_command_overflow = false;
        g_command_length = 0u;
        return;
    }

    if (g_command_length == 0u) {
    1172:	4b13      	ldr	r3, [pc, #76]	@ (11c0 <queue_completed_command+0x58>)
    1174:	681a      	ldr	r2, [r3, #0]
    1176:	2a00      	cmp	r2, #0
    1178:	d00c      	beq.n	1194 <queue_completed_command+0x2c>
        return;
    }

    g_command_buffer[g_command_length] = '\0';
    117a:	4b12      	ldr	r3, [pc, #72]	@ (11c4 <queue_completed_command+0x5c>)
    117c:	2100      	movs	r1, #0
    117e:	5499      	strb	r1, [r3, r2]

    if (g_pending_command_ready) {
    1180:	4b11      	ldr	r3, [pc, #68]	@ (11c8 <queue_completed_command+0x60>)
    1182:	781b      	ldrb	r3, [r3, #0]
    1184:	2b00      	cmp	r3, #0
    1186:	d00f      	beq.n	11a8 <queue_completed_command+0x40>
        g_pending_command_dropped = true;
    1188:	4b10      	ldr	r3, [pc, #64]	@ (11cc <queue_completed_command+0x64>)
    118a:	2201      	movs	r2, #1
    118c:	701a      	strb	r2, [r3, #0]
    } else {
        memcpy(g_pending_command_buffer, g_command_buffer, g_command_length + 1u);
        g_pending_command_ready = true;
    }

    g_command_length = 0u;
    118e:	4b0c      	ldr	r3, [pc, #48]	@ (11c0 <queue_completed_command+0x58>)
    1190:	2200      	movs	r2, #0
    1192:	601a      	str	r2, [r3, #0]
}
    1194:	bd10      	pop	{r4, pc}
        g_pending_command_toolong = true;
    1196:	4b0e      	ldr	r3, [pc, #56]	@ (11d0 <queue_completed_command+0x68>)
    1198:	2201      	movs	r2, #1
    119a:	701a      	strb	r2, [r3, #0]
        g_command_overflow = false;
    119c:	4b07      	ldr	r3, [pc, #28]	@ (11bc <queue_completed_command+0x54>)
    119e:	2200      	movs	r2, #0
    11a0:	701a      	strb	r2, [r3, #0]
        g_command_length = 0u;
    11a2:	4b07      	ldr	r3, [pc, #28]	@ (11c0 <queue_completed_command+0x58>)
    11a4:	601a      	str	r2, [r3, #0]
        return;
    11a6:	e7f5      	b.n	1194 <queue_completed_command+0x2c>
        memcpy(g_pending_command_buffer, g_command_buffer, g_command_length + 1u);
    11a8:	3201      	adds	r2, #1
    11aa:	480a      	ldr	r0, [pc, #40]	@ (11d4 <queue_completed_command+0x6c>)
    11ac:	4905      	ldr	r1, [pc, #20]	@ (11c4 <queue_completed_command+0x5c>)
    11ae:	f7ff fb9d 	bl	8ec <memcpy>
        g_pending_command_ready = true;
    11b2:	4b05      	ldr	r3, [pc, #20]	@ (11c8 <queue_completed_command+0x60>)
    11b4:	2201      	movs	r2, #1
    11b6:	701a      	strb	r2, [r3, #0]
    11b8:	e7e9      	b.n	118e <queue_completed_command+0x26>
    11ba:	46c0      	nop			@ (mov r8, r8)
    11bc:	10000203 	.word	0x10000203
    11c0:	10000204 	.word	0x10000204
    11c4:	10000268 	.word	0x10000268
    11c8:	10000202 	.word	0x10000202
    11cc:	10000200 	.word	0x10000200
    11d0:	10000201 	.word	0x10000201
    11d4:	10000208 	.word	0x10000208

000011d8 <pump_uart_rx>:

static void pump_uart_rx(void)
{
    11d8:	b510      	push	{r4, lr}
    while (uart_rx_ready()) {
    11da:	e006      	b.n	11ea <pump_uart_rx+0x12>
        if (byte == '\r') {
            continue;
        }

        if (byte == '\n') {
            queue_completed_command();
    11dc:	f7ff ffc4 	bl	1168 <queue_completed_command>
            continue;
    11e0:	e003      	b.n	11ea <pump_uart_rx+0x12>
        if (g_command_length + 1u >= AT_COMMAND_BUFFER_SIZE) {
            g_command_overflow = true;
            continue;
        }

        g_command_buffer[g_command_length++] = byte;
    11e2:	490c      	ldr	r1, [pc, #48]	@ (1214 <pump_uart_rx+0x3c>)
    11e4:	600a      	str	r2, [r1, #0]
    11e6:	4a0c      	ldr	r2, [pc, #48]	@ (1218 <pump_uart_rx+0x40>)
    11e8:	54d0      	strb	r0, [r2, r3]
    while (uart_rx_ready()) {
    11ea:	f7ff fd75 	bl	cd8 <uart_rx_ready>
    11ee:	2800      	cmp	r0, #0
    11f0:	d00e      	beq.n	1210 <pump_uart_rx+0x38>
        const char byte = (char)uart_read_byte();
    11f2:	f7ff fd79 	bl	ce8 <uart_read_byte>
        if (byte == '\r') {
    11f6:	280d      	cmp	r0, #13
    11f8:	d0f7      	beq.n	11ea <pump_uart_rx+0x12>
        if (byte == '\n') {
    11fa:	280a      	cmp	r0, #10
    11fc:	d0ee      	beq.n	11dc <pump_uart_rx+0x4>
        if (g_command_length + 1u >= AT_COMMAND_BUFFER_SIZE) {
    11fe:	4b05      	ldr	r3, [pc, #20]	@ (1214 <pump_uart_rx+0x3c>)
    1200:	681b      	ldr	r3, [r3, #0]
    1202:	1c5a      	adds	r2, r3, #1
    1204:	2a5f      	cmp	r2, #95	@ 0x5f
    1206:	d9ec      	bls.n	11e2 <pump_uart_rx+0xa>
            g_command_overflow = true;
    1208:	4b04      	ldr	r3, [pc, #16]	@ (121c <pump_uart_rx+0x44>)
    120a:	2201      	movs	r2, #1
    120c:	701a      	strb	r2, [r3, #0]
            continue;
    120e:	e7ec      	b.n	11ea <pump_uart_rx+0x12>
    }
}
    1210:	bd10      	pop	{r4, pc}
    1212:	46c0      	nop			@ (mov r8, r8)
    1214:	10000204 	.word	0x10000204
    1218:	10000268 	.word	0x10000268
    121c:	10000203 	.word	0x10000203

00001220 <uart_write_byte>:
{
    1220:	b510      	push	{r4, lr}
    1222:	0004      	movs	r4, r0
    while ((USART0->STAT & USART_STAT_TXRDY_MASK) == 0u) {
    1224:	e001      	b.n	122a <uart_write_byte+0xa>
        pump_uart_rx();
    1226:	f7ff ffd7 	bl	11d8 <pump_uart_rx>
    while ((USART0->STAT & USART_STAT_TXRDY_MASK) == 0u) {
    122a:	4b04      	ldr	r3, [pc, #16]	@ (123c <uart_write_byte+0x1c>)
    122c:	689b      	ldr	r3, [r3, #8]
    122e:	075b      	lsls	r3, r3, #29
    1230:	d5f9      	bpl.n	1226 <uart_write_byte+0x6>
    USART0->TXDAT = USART_TXDAT_TXDAT(byte);
    1232:	4b02      	ldr	r3, [pc, #8]	@ (123c <uart_write_byte+0x1c>)
    1234:	61dc      	str	r4, [r3, #28]
    pump_uart_rx();
    1236:	f7ff ffcf 	bl	11d8 <pump_uart_rx>
}
    123a:	bd10      	pop	{r4, pc}
    123c:	40064000 	.word	0x40064000

00001240 <uart_write_decimal>:
{
    1240:	b570      	push	{r4, r5, r6, lr}
    1242:	b084      	sub	sp, #16
    1244:	1e05      	subs	r5, r0, #0
    if (value == 0u) {
    1246:	d001      	beq.n	124c <uart_write_decimal+0xc>
    uint32_t i = 0u;
    1248:	2400      	movs	r4, #0
    124a:	e011      	b.n	1270 <uart_write_decimal+0x30>
        uart_write_byte('0');
    124c:	2030      	movs	r0, #48	@ 0x30
    124e:	f7ff ffe7 	bl	1220 <uart_write_byte>
        return;
    1252:	e017      	b.n	1284 <uart_write_decimal+0x44>
        buffer[i++] = (char)('0' + (value % 10u));
    1254:	210a      	movs	r1, #10
    1256:	0028      	movs	r0, r5
    1258:	f7ff f996 	bl	588 <__aeabi_uidivmod>
    125c:	1c66      	adds	r6, r4, #1
    125e:	3130      	adds	r1, #48	@ 0x30
    1260:	ab01      	add	r3, sp, #4
    1262:	5519      	strb	r1, [r3, r4]
        value /= 10u;
    1264:	210a      	movs	r1, #10
    1266:	0028      	movs	r0, r5
    1268:	f7ff f908 	bl	47c <__udivsi3>
    126c:	0005      	movs	r5, r0
        buffer[i++] = (char)('0' + (value % 10u));
    126e:	0034      	movs	r4, r6
    while (value > 0u) {
    1270:	2d00      	cmp	r5, #0
    1272:	d1ef      	bne.n	1254 <uart_write_decimal+0x14>
    1274:	e004      	b.n	1280 <uart_write_decimal+0x40>
        uart_write_byte((uint8_t)buffer[--i]);
    1276:	3c01      	subs	r4, #1
    1278:	ab01      	add	r3, sp, #4
    127a:	5d18      	ldrb	r0, [r3, r4]
    127c:	f7ff ffd0 	bl	1220 <uart_write_byte>
    while (i > 0u) {
    1280:	2c00      	cmp	r4, #0
    1282:	d1f8      	bne.n	1276 <uart_write_decimal+0x36>
}
    1284:	b004      	add	sp, #16
    1286:	bd70      	pop	{r4, r5, r6, pc}

00001288 <uart_write_string>:
{
    1288:	b510      	push	{r4, lr}
    128a:	0004      	movs	r4, r0
    while (*s != '\0') {
    128c:	e002      	b.n	1294 <uart_write_string+0xc>
        uart_write_byte((uint8_t)*s++);
    128e:	3401      	adds	r4, #1
    1290:	f7ff ffc6 	bl	1220 <uart_write_byte>
    while (*s != '\0') {
    1294:	7820      	ldrb	r0, [r4, #0]
    1296:	2800      	cmp	r0, #0
    1298:	d1f9      	bne.n	128e <uart_write_string+0x6>
}
    129a:	bd10      	pop	{r4, pc}

0000129c <uart_write_crlf>:
{
    129c:	b510      	push	{r4, lr}
    uart_write_byte('\r');
    129e:	200d      	movs	r0, #13
    12a0:	f7ff ffbe 	bl	1220 <uart_write_byte>
    uart_write_byte('\n');
    12a4:	200a      	movs	r0, #10
    12a6:	f7ff ffbb 	bl	1220 <uart_write_byte>
}
    12aa:	bd10      	pop	{r4, pc}

000012ac <emit_info>:
{
    12ac:	b510      	push	{r4, lr}
    uart_write_string("+INFO: proto=");
    12ae:	4806      	ldr	r0, [pc, #24]	@ (12c8 <emit_info+0x1c>)
    12b0:	f7ff ffea 	bl	1288 <uart_write_string>
    uart_write_decimal(ULTRASONIC_PROTOCOL_VERSION);
    12b4:	2001      	movs	r0, #1
    12b6:	f7ff ffc3 	bl	1240 <uart_write_decimal>
    uart_write_string(",target=LPC824,fw=ultrasonic_ranger");
    12ba:	4804      	ldr	r0, [pc, #16]	@ (12cc <emit_info+0x20>)
    12bc:	f7ff ffe4 	bl	1288 <uart_write_string>
    uart_write_crlf();
    12c0:	f7ff ffec 	bl	129c <uart_write_crlf>
}
    12c4:	bd10      	pop	{r4, pc}
    12c6:	46c0      	nop			@ (mov r8, r8)
    12c8:	00001ed4 	.word	0x00001ed4
    12cc:	00001ee4 	.word	0x00001ee4

000012d0 <emit_config>:
{
    12d0:	b510      	push	{r4, lr}
    uart_write_string("+CFG: mode=");
    12d2:	481c      	ldr	r0, [pc, #112]	@ (1344 <emit_config+0x74>)
    12d4:	f7ff ffd8 	bl	1288 <uart_write_string>
    uart_write_string(mode_to_string(g_config.mode));
    12d8:	4c1b      	ldr	r4, [pc, #108]	@ (1348 <emit_config+0x78>)
    12da:	7820      	ldrb	r0, [r4, #0]
    12dc:	f7ff fba0 	bl	a20 <mode_to_string>
    12e0:	f7ff ffd2 	bl	1288 <uart_write_string>
    uart_write_string(",nshot=");
    12e4:	4819      	ldr	r0, [pc, #100]	@ (134c <emit_config+0x7c>)
    12e6:	f7ff ffcf 	bl	1288 <uart_write_string>
    uart_write_decimal(g_config.nshot);
    12ea:	6860      	ldr	r0, [r4, #4]
    12ec:	f7ff ffa8 	bl	1240 <uart_write_decimal>
    uart_write_string(",fmt=");
    12f0:	4817      	ldr	r0, [pc, #92]	@ (1350 <emit_config+0x80>)
    12f2:	f7ff ffc9 	bl	1288 <uart_write_string>
    uart_write_string(format_to_string(g_config.format));
    12f6:	7860      	ldrb	r0, [r4, #1]
    12f8:	f7ff fba8 	bl	a4c <format_to_string>
    12fc:	f7ff ffc4 	bl	1288 <uart_write_string>
    uart_write_string(",txfreq=");
    1300:	4814      	ldr	r0, [pc, #80]	@ (1354 <emit_config+0x84>)
    1302:	f7ff ffc1 	bl	1288 <uart_write_string>
    uart_write_decimal(g_config.tx_frequency_hz);
    1306:	68a0      	ldr	r0, [r4, #8]
    1308:	f7ff ff9a 	bl	1240 <uart_write_decimal>
    uart_write_string(",txcycles=");
    130c:	4812      	ldr	r0, [pc, #72]	@ (1358 <emit_config+0x88>)
    130e:	f7ff ffbb 	bl	1288 <uart_write_string>
    uart_write_decimal(g_config.tx_cycles);
    1312:	68e0      	ldr	r0, [r4, #12]
    1314:	f7ff ff94 	bl	1240 <uart_write_decimal>
    uart_write_string(",srate=");
    1318:	4810      	ldr	r0, [pc, #64]	@ (135c <emit_config+0x8c>)
    131a:	f7ff ffb5 	bl	1288 <uart_write_string>
    uart_write_decimal(g_config.adc_sample_rate_hz);
    131e:	6920      	ldr	r0, [r4, #16]
    1320:	f7ff ff8e 	bl	1240 <uart_write_decimal>
    uart_write_string(",samples=");
    1324:	480e      	ldr	r0, [pc, #56]	@ (1360 <emit_config+0x90>)
    1326:	f7ff ffaf 	bl	1288 <uart_write_string>
    uart_write_decimal(g_config.sample_count);
    132a:	6960      	ldr	r0, [r4, #20]
    132c:	f7ff ff88 	bl	1240 <uart_write_decimal>
    uart_write_string(",envsamples=");
    1330:	480c      	ldr	r0, [pc, #48]	@ (1364 <emit_config+0x94>)
    1332:	f7ff ffa9 	bl	1288 <uart_write_string>
    uart_write_decimal(estimate_envelope_sample_count());
    1336:	f7ff fcdd 	bl	cf4 <estimate_envelope_sample_count>
    133a:	f7ff ff81 	bl	1240 <uart_write_decimal>
    uart_write_crlf();
    133e:	f7ff ffad 	bl	129c <uart_write_crlf>
}
    1342:	bd10      	pop	{r4, pc}
    1344:	00001f08 	.word	0x00001f08
    1348:	10000004 	.word	0x10000004
    134c:	00001f14 	.word	0x00001f14
    1350:	00001f1c 	.word	0x00001f1c
    1354:	00001f24 	.word	0x00001f24
    1358:	00001f30 	.word	0x00001f30
    135c:	00001f3c 	.word	0x00001f3c
    1360:	00001f44 	.word	0x00001f44
    1364:	00001f50 	.word	0x00001f50

00001368 <emit_done_stopped>:
{
    1368:	b510      	push	{r4, lr}
    uart_write_string("+DONE: stopped");
    136a:	4803      	ldr	r0, [pc, #12]	@ (1378 <emit_done_stopped+0x10>)
    136c:	f7ff ff8c 	bl	1288 <uart_write_string>
    uart_write_crlf();
    1370:	f7ff ff94 	bl	129c <uart_write_crlf>
}
    1374:	bd10      	pop	{r4, pc}
    1376:	46c0      	nop			@ (mov r8, r8)
    1378:	00001f60 	.word	0x00001f60

0000137c <emit_ok>:
{
    137c:	b510      	push	{r4, lr}
    uart_write_string("OK");
    137e:	4803      	ldr	r0, [pc, #12]	@ (138c <emit_ok+0x10>)
    1380:	f7ff ff82 	bl	1288 <uart_write_string>
    uart_write_crlf();
    1384:	f7ff ff8a 	bl	129c <uart_write_crlf>
}
    1388:	bd10      	pop	{r4, pc}
    138a:	46c0      	nop			@ (mov r8, r8)
    138c:	00001f70 	.word	0x00001f70

00001390 <emit_done_frames>:
{
    1390:	b510      	push	{r4, lr}
    1392:	0004      	movs	r4, r0
    uart_write_string("+DONE: frames=");
    1394:	4804      	ldr	r0, [pc, #16]	@ (13a8 <emit_done_frames+0x18>)
    1396:	f7ff ff77 	bl	1288 <uart_write_string>
    uart_write_decimal(frame_count);
    139a:	0020      	movs	r0, r4
    139c:	f7ff ff50 	bl	1240 <uart_write_decimal>
    uart_write_crlf();
    13a0:	f7ff ff7c 	bl	129c <uart_write_crlf>
}
    13a4:	bd10      	pop	{r4, pc}
    13a6:	46c0      	nop			@ (mov r8, r8)
    13a8:	00001f74 	.word	0x00001f74

000013ac <uart_write_data>:
{
    13ac:	b570      	push	{r4, r5, r6, lr}
    13ae:	0006      	movs	r6, r0
    13b0:	000d      	movs	r5, r1
    for (uint32_t i = 0u; i < length; ++i) {
    13b2:	2400      	movs	r4, #0
    13b4:	e003      	b.n	13be <uart_write_data+0x12>
        uart_write_byte(data[i]);
    13b6:	5d30      	ldrb	r0, [r6, r4]
    13b8:	f7ff ff32 	bl	1220 <uart_write_byte>
    for (uint32_t i = 0u; i < length; ++i) {
    13bc:	3401      	adds	r4, #1
    13be:	42ac      	cmp	r4, r5
    13c0:	d3f9      	bcc.n	13b6 <uart_write_data+0xa>
}
    13c2:	bd70      	pop	{r4, r5, r6, pc}

000013c4 <emit_error>:
{
    13c4:	b510      	push	{r4, lr}
    13c6:	0004      	movs	r4, r0
    uart_write_string("ERROR");
    13c8:	4808      	ldr	r0, [pc, #32]	@ (13ec <emit_error+0x28>)
    13ca:	f7ff ff5d 	bl	1288 <uart_write_string>
    if (reason != NULL && *reason != '\0') {
    13ce:	2c00      	cmp	r4, #0
    13d0:	d002      	beq.n	13d8 <emit_error+0x14>
    13d2:	7823      	ldrb	r3, [r4, #0]
    13d4:	2b00      	cmp	r3, #0
    13d6:	d102      	bne.n	13de <emit_error+0x1a>
    uart_write_crlf();
    13d8:	f7ff ff60 	bl	129c <uart_write_crlf>
}
    13dc:	bd10      	pop	{r4, pc}
        uart_write_byte(':');
    13de:	203a      	movs	r0, #58	@ 0x3a
    13e0:	f7ff ff1e 	bl	1220 <uart_write_byte>
        uart_write_string(reason);
    13e4:	0020      	movs	r0, r4
    13e6:	f7ff ff4f 	bl	1288 <uart_write_string>
    13ea:	e7f5      	b.n	13d8 <emit_error+0x14>
    13ec:	00001f84 	.word	0x00001f84

000013f0 <emit_query_value>:
{
    13f0:	b570      	push	{r4, r5, r6, lr}
    13f2:	0005      	movs	r5, r0
    13f4:	000c      	movs	r4, r1
    uart_write_byte('+');
    13f6:	202b      	movs	r0, #43	@ 0x2b
    13f8:	f7ff ff12 	bl	1220 <uart_write_byte>
    uart_write_string(name);
    13fc:	0028      	movs	r0, r5
    13fe:	f7ff ff43 	bl	1288 <uart_write_string>
    uart_write_string(": ");
    1402:	4804      	ldr	r0, [pc, #16]	@ (1414 <emit_query_value+0x24>)
    1404:	f7ff ff40 	bl	1288 <uart_write_string>
    uart_write_string(value);
    1408:	0020      	movs	r0, r4
    140a:	f7ff ff3d 	bl	1288 <uart_write_string>
    uart_write_crlf();
    140e:	f7ff ff45 	bl	129c <uart_write_crlf>
}
    1412:	bd70      	pop	{r4, r5, r6, pc}
    1414:	00001f8c 	.word	0x00001f8c

00001418 <emit_query_value_u32>:
{
    1418:	b570      	push	{r4, r5, r6, lr}
    141a:	0005      	movs	r5, r0
    141c:	000c      	movs	r4, r1
    uart_write_byte('+');
    141e:	202b      	movs	r0, #43	@ 0x2b
    1420:	f7ff fefe 	bl	1220 <uart_write_byte>
    uart_write_string(name);
    1424:	0028      	movs	r0, r5
    1426:	f7ff ff2f 	bl	1288 <uart_write_string>
    uart_write_string(": ");
    142a:	4804      	ldr	r0, [pc, #16]	@ (143c <emit_query_value_u32+0x24>)
    142c:	f7ff ff2c 	bl	1288 <uart_write_string>
    uart_write_decimal(value);
    1430:	0020      	movs	r0, r4
    1432:	f7ff ff05 	bl	1240 <uart_write_decimal>
    uart_write_crlf();
    1436:	f7ff ff31 	bl	129c <uart_write_crlf>
}
    143a:	bd70      	pop	{r4, r5, r6, pc}
    143c:	00001f8c 	.word	0x00001f8c

00001440 <capture_frame>:
{
    1440:	b510      	push	{r4, lr}
    setup_sct_for_transducer();
    1442:	f7ff fcdb 	bl	dfc <setup_sct_for_transducer>
    g_pulse_cycle_count = 0u;
    1446:	4b1c      	ldr	r3, [pc, #112]	@ (14b8 <capture_frame+0x78>)
    1448:	2200      	movs	r2, #0
    144a:	601a      	str	r2, [r3, #0]
    debug_pin_pulse(2u);
    144c:	2002      	movs	r0, #2
    144e:	f7ff fad7 	bl	a00 <debug_pin_pulse>
    sct_run();
    1452:	f7ff fc7f 	bl	d54 <sct_run>
    while (g_pulse_cycle_count < g_config.tx_cycles) {
    1456:	e002      	b.n	145e <capture_frame+0x1e>
        pump_uart_rx();
    1458:	f7ff febe 	bl	11d8 <pump_uart_rx>
        __WFI();
    145c:	bf30      	wfi
    while (g_pulse_cycle_count < g_config.tx_cycles) {
    145e:	4b17      	ldr	r3, [pc, #92]	@ (14bc <capture_frame+0x7c>)
    1460:	68da      	ldr	r2, [r3, #12]
    1462:	4b15      	ldr	r3, [pc, #84]	@ (14b8 <capture_frame+0x78>)
    1464:	681b      	ldr	r3, [r3, #0]
    1466:	429a      	cmp	r2, r3
    1468:	d8f6      	bhi.n	1458 <capture_frame+0x18>
    sct_halt();
    146a:	f7ff fc6b 	bl	d44 <sct_halt>
    setup_dma_for_adc();
    146e:	f7ff fd55 	bl	f1c <setup_dma_for_adc>
    setup_sct_for_adc();
    1472:	f7ff fd05 	bl	e80 <setup_sct_for_adc>
    g_dma_block_count = 0u;
    1476:	4b12      	ldr	r3, [pc, #72]	@ (14c0 <capture_frame+0x80>)
    1478:	2200      	movs	r2, #0
    147a:	601a      	str	r2, [r3, #0]
    sct_run();
    147c:	f7ff fc6a 	bl	d54 <sct_run>
    while (g_dma_block_count < 3u) {
    1480:	e002      	b.n	1488 <capture_frame+0x48>
        pump_uart_rx();
    1482:	f7ff fea9 	bl	11d8 <pump_uart_rx>
        __WFI();
    1486:	bf30      	wfi
    while (g_dma_block_count < 3u) {
    1488:	4b0d      	ldr	r3, [pc, #52]	@ (14c0 <capture_frame+0x80>)
    148a:	681b      	ldr	r3, [r3, #0]
    148c:	2b02      	cmp	r3, #2
    148e:	d9f8      	bls.n	1482 <capture_frame+0x42>
    sct_halt();
    1490:	f7ff fc58 	bl	d44 <sct_halt>
    for (uint32_t i = 0u; i < ULTRASONIC_SAMPLE_COUNT; ++i) {
    1494:	2200      	movs	r2, #0
    1496:	e005      	b.n	14a4 <capture_frame+0x64>
        g_adc_buffer[i] >>= 4u;
    1498:	4b0a      	ldr	r3, [pc, #40]	@ (14c4 <capture_frame+0x84>)
    149a:	0050      	lsls	r0, r2, #1
    149c:	5ac1      	ldrh	r1, [r0, r3]
    149e:	0909      	lsrs	r1, r1, #4
    14a0:	52c1      	strh	r1, [r0, r3]
    for (uint32_t i = 0u; i < ULTRASONIC_SAMPLE_COUNT; ++i) {
    14a2:	3201      	adds	r2, #1
    14a4:	23c0      	movs	r3, #192	@ 0xc0
    14a6:	011b      	lsls	r3, r3, #4
    14a8:	429a      	cmp	r2, r3
    14aa:	d3f5      	bcc.n	1498 <capture_frame+0x58>
    g_output_sample_count = ULTRASONIC_SAMPLE_COUNT;
    14ac:	4b06      	ldr	r3, [pc, #24]	@ (14c8 <capture_frame+0x88>)
    14ae:	22c0      	movs	r2, #192	@ 0xc0
    14b0:	0112      	lsls	r2, r2, #4
    14b2:	601a      	str	r2, [r3, #0]
}
    14b4:	bd10      	pop	{r4, pc}
    14b6:	46c0      	nop			@ (mov r8, r8)
    14b8:	100002d0 	.word	0x100002d0
    14bc:	10000004 	.word	0x10000004
    14c0:	100002d4 	.word	0x100002d4
    14c4:	100002d8 	.word	0x100002d8
    14c8:	1000001c 	.word	0x1000001c

000014cc <emit_frame_compact>:
{
    14cc:	b5f8      	push	{r3, r4, r5, r6, r7, lr}
    uart_write_byte('W');
    14ce:	2057      	movs	r0, #87	@ 0x57
    14d0:	f7ff fea6 	bl	1220 <uart_write_byte>
    uart_write_byte(' ');
    14d4:	2020      	movs	r0, #32
    14d6:	f7ff fea3 	bl	1220 <uart_write_byte>
    for (uint32_t i = 0u; i < g_output_sample_count; ++i) {
    14da:	2500      	movs	r5, #0
    14dc:	e00e      	b.n	14fc <emit_frame_compact+0x30>
        uart_write_byte((uint8_t)(((g_adc_buffer[i] >> 6u) & 0x3Fu) + '?'));
    14de:	4e0d      	ldr	r6, [pc, #52]	@ (1514 <emit_frame_compact+0x48>)
    14e0:	006f      	lsls	r7, r5, #1
    14e2:	5bb8      	ldrh	r0, [r7, r6]
    14e4:	0980      	lsrs	r0, r0, #6
    14e6:	243f      	movs	r4, #63	@ 0x3f
    14e8:	4020      	ands	r0, r4
    14ea:	303f      	adds	r0, #63	@ 0x3f
    14ec:	f7ff fe98 	bl	1220 <uart_write_byte>
        uart_write_byte((uint8_t)((g_adc_buffer[i] & 0x3Fu) + '?'));
    14f0:	5bb8      	ldrh	r0, [r7, r6]
    14f2:	4020      	ands	r0, r4
    14f4:	303f      	adds	r0, #63	@ 0x3f
    14f6:	f7ff fe93 	bl	1220 <uart_write_byte>
    for (uint32_t i = 0u; i < g_output_sample_count; ++i) {
    14fa:	3501      	adds	r5, #1
    14fc:	4b06      	ldr	r3, [pc, #24]	@ (1518 <emit_frame_compact+0x4c>)
    14fe:	681b      	ldr	r3, [r3, #0]
    1500:	42ab      	cmp	r3, r5
    1502:	d904      	bls.n	150e <emit_frame_compact+0x42>
        if ((i & 0x1Fu) == 0u) {
    1504:	06eb      	lsls	r3, r5, #27
    1506:	d1ea      	bne.n	14de <emit_frame_compact+0x12>
            pump_uart_rx();
    1508:	f7ff fe66 	bl	11d8 <pump_uart_rx>
    150c:	e7e7      	b.n	14de <emit_frame_compact+0x12>
    uart_write_crlf();
    150e:	f7ff fec5 	bl	129c <uart_write_crlf>
}
    1512:	bdf8      	pop	{r3, r4, r5, r6, r7, pc}
    1514:	100002d8 	.word	0x100002d8
    1518:	1000001c 	.word	0x1000001c

0000151c <emit_frame_text>:
{
    151c:	b510      	push	{r4, lr}
    uart_write_string("T seq=");
    151e:	4816      	ldr	r0, [pc, #88]	@ (1578 <emit_frame_text+0x5c>)
    1520:	f7ff feb2 	bl	1288 <uart_write_string>
    uart_write_decimal(g_frame_sequence);
    1524:	4b15      	ldr	r3, [pc, #84]	@ (157c <emit_frame_text+0x60>)
    1526:	6818      	ldr	r0, [r3, #0]
    1528:	f7ff fe8a 	bl	1240 <uart_write_decimal>
    uart_write_string(" count=");
    152c:	4814      	ldr	r0, [pc, #80]	@ (1580 <emit_frame_text+0x64>)
    152e:	f7ff feab 	bl	1288 <uart_write_string>
    uart_write_decimal(g_output_sample_count);
    1532:	4b14      	ldr	r3, [pc, #80]	@ (1584 <emit_frame_text+0x68>)
    1534:	6818      	ldr	r0, [r3, #0]
    1536:	f7ff fe83 	bl	1240 <uart_write_decimal>
    uart_write_byte(' ');
    153a:	2020      	movs	r0, #32
    153c:	f7ff fe70 	bl	1220 <uart_write_byte>
    for (uint32_t i = 0u; i < g_output_sample_count; ++i) {
    1540:	2400      	movs	r4, #0
    1542:	4b10      	ldr	r3, [pc, #64]	@ (1584 <emit_frame_text+0x68>)
    1544:	681b      	ldr	r3, [r3, #0]
    1546:	42a3      	cmp	r3, r4
    1548:	d912      	bls.n	1570 <emit_frame_text+0x54>
        if ((i & 0x1Fu) == 0u) {
    154a:	06e3      	lsls	r3, r4, #27
    154c:	d00d      	beq.n	156a <emit_frame_text+0x4e>
        uart_write_decimal(g_adc_buffer[i]);
    154e:	4b0e      	ldr	r3, [pc, #56]	@ (1588 <emit_frame_text+0x6c>)
    1550:	0062      	lsls	r2, r4, #1
    1552:	5ad0      	ldrh	r0, [r2, r3]
    1554:	f7ff fe74 	bl	1240 <uart_write_decimal>
        if (i + 1u < g_output_sample_count) {
    1558:	3401      	adds	r4, #1
    155a:	4b0a      	ldr	r3, [pc, #40]	@ (1584 <emit_frame_text+0x68>)
    155c:	681b      	ldr	r3, [r3, #0]
    155e:	429c      	cmp	r4, r3
    1560:	d2ef      	bcs.n	1542 <emit_frame_text+0x26>
            uart_write_byte(',');
    1562:	202c      	movs	r0, #44	@ 0x2c
    1564:	f7ff fe5c 	bl	1220 <uart_write_byte>
    1568:	e7eb      	b.n	1542 <emit_frame_text+0x26>
            pump_uart_rx();
    156a:	f7ff fe35 	bl	11d8 <pump_uart_rx>
    156e:	e7ee      	b.n	154e <emit_frame_text+0x32>
    uart_write_crlf();
    1570:	f7ff fe94 	bl	129c <uart_write_crlf>
}
    1574:	bd10      	pop	{r4, pc}
    1576:	46c0      	nop			@ (mov r8, r8)
    1578:	00001f90 	.word	0x00001f90
    157c:	100002c8 	.word	0x100002c8
    1580:	00001f98 	.word	0x00001f98
    1584:	1000001c 	.word	0x1000001c
    1588:	100002d8 	.word	0x100002d8

0000158c <emit_frame_binary>:
{
    158c:	b570      	push	{r4, r5, r6, lr}
    158e:	b084      	sub	sp, #16
    const uint16_t payload_len = (uint16_t)(((g_output_sample_count + 1u) / 2u) * 3u);
    1590:	4b35      	ldr	r3, [pc, #212]	@ (1668 <emit_frame_binary+0xdc>)
    1592:	6819      	ldr	r1, [r3, #0]
    1594:	1c4b      	adds	r3, r1, #1
    1596:	085b      	lsrs	r3, r3, #1
    1598:	b29b      	uxth	r3, r3
    159a:	005a      	lsls	r2, r3, #1
    159c:	189b      	adds	r3, r3, r2
    159e:	b29c      	uxth	r4, r3
    const uint8_t header[12] = {
    15a0:	a801      	add	r0, sp, #4
    15a2:	2255      	movs	r2, #85	@ 0x55
    15a4:	7002      	strb	r2, [r0, #0]
    15a6:	3202      	adds	r2, #2
    15a8:	7042      	strb	r2, [r0, #1]
    15aa:	3a56      	subs	r2, #86	@ 0x56
    15ac:	7082      	strb	r2, [r0, #2]
    15ae:	70c2      	strb	r2, [r0, #3]
        (uint8_t)(g_frame_sequence & 0xFFu),
    15b0:	4a2e      	ldr	r2, [pc, #184]	@ (166c <emit_frame_binary+0xe0>)
    15b2:	6812      	ldr	r2, [r2, #0]
    const uint8_t header[12] = {
    15b4:	7102      	strb	r2, [r0, #4]
        (uint8_t)((g_frame_sequence >> 8u) & 0xFFu),
    15b6:	0a15      	lsrs	r5, r2, #8
    const uint8_t header[12] = {
    15b8:	7145      	strb	r5, [r0, #5]
        (uint8_t)((g_frame_sequence >> 16u) & 0xFFu),
    15ba:	0c15      	lsrs	r5, r2, #16
    const uint8_t header[12] = {
    15bc:	7185      	strb	r5, [r0, #6]
        (uint8_t)((g_frame_sequence >> 24u) & 0xFFu),
    15be:	0e12      	lsrs	r2, r2, #24
    const uint8_t header[12] = {
    15c0:	71c2      	strb	r2, [r0, #7]
    15c2:	7201      	strb	r1, [r0, #8]
        (uint8_t)((g_output_sample_count >> 8u) & 0xFFu),
    15c4:	0a09      	lsrs	r1, r1, #8
    const uint8_t header[12] = {
    15c6:	7241      	strb	r1, [r0, #9]
    15c8:	7283      	strb	r3, [r0, #10]
        (uint8_t)((payload_len >> 8u) & 0xFFu),
    15ca:	0a24      	lsrs	r4, r4, #8
    const uint8_t header[12] = {
    15cc:	72c4      	strb	r4, [r0, #11]
    uart_write_data(header, sizeof(header));
    15ce:	210c      	movs	r1, #12
    15d0:	f7ff feec 	bl	13ac <uart_write_data>
    for (uint32_t i = 0u; i < sizeof(header); ++i) {
    15d4:	2500      	movs	r5, #0
    uint16_t crc = 0xFFFFu;
    15d6:	4c26      	ldr	r4, [pc, #152]	@ (1670 <emit_frame_binary+0xe4>)
    for (uint32_t i = 0u; i < sizeof(header); ++i) {
    15d8:	e006      	b.n	15e8 <emit_frame_binary+0x5c>
        crc = crc16_ccitt_update(crc, header[i]);
    15da:	ab01      	add	r3, sp, #4
    15dc:	5d59      	ldrb	r1, [r3, r5]
    15de:	0020      	movs	r0, r4
    15e0:	f7ff fd96 	bl	1110 <crc16_ccitt_update>
    15e4:	0004      	movs	r4, r0
    for (uint32_t i = 0u; i < sizeof(header); ++i) {
    15e6:	3501      	adds	r5, #1
    15e8:	2d0b      	cmp	r5, #11
    15ea:	d9f6      	bls.n	15da <emit_frame_binary+0x4e>
    for (uint32_t i = 0u; i < g_output_sample_count; i += 2u) {
    15ec:	2600      	movs	r6, #0
    15ee:	e01c      	b.n	162a <emit_frame_binary+0x9e>
            pump_uart_rx();
    15f0:	f7ff fdf2 	bl	11d8 <pump_uart_rx>
    15f4:	e01f      	b.n	1636 <emit_frame_binary+0xaa>
        const uint16_t sample_b = (uint16_t)(((i + 1u) < g_output_sample_count) ? (g_adc_buffer[i + 1u] & 0x0FFFu) : 0u);
    15f6:	2200      	movs	r2, #0
        const uint8_t packed[3] = {
    15f8:	466d      	mov	r5, sp
    15fa:	702b      	strb	r3, [r5, #0]
            (uint8_t)(((sample_a >> 8u) & 0x0Fu) | ((sample_b & 0x0Fu) << 4u)),
    15fc:	0a1b      	lsrs	r3, r3, #8
    15fe:	0111      	lsls	r1, r2, #4
    1600:	b2c9      	uxtb	r1, r1
    1602:	430b      	orrs	r3, r1
        const uint8_t packed[3] = {
    1604:	706b      	strb	r3, [r5, #1]
            (uint8_t)((sample_b >> 4u) & 0xFFu),
    1606:	0912      	lsrs	r2, r2, #4
        const uint8_t packed[3] = {
    1608:	70aa      	strb	r2, [r5, #2]
        uart_write_data(packed, 3u);
    160a:	2103      	movs	r1, #3
    160c:	4668      	mov	r0, sp
    160e:	f7ff fecd 	bl	13ac <uart_write_data>
        crc = crc16_ccitt_update(crc, packed[0]);
    1612:	7829      	ldrb	r1, [r5, #0]
    1614:	0020      	movs	r0, r4
    1616:	f7ff fd7b 	bl	1110 <crc16_ccitt_update>
        crc = crc16_ccitt_update(crc, packed[1]);
    161a:	7869      	ldrb	r1, [r5, #1]
    161c:	f7ff fd78 	bl	1110 <crc16_ccitt_update>
        crc = crc16_ccitt_update(crc, packed[2]);
    1620:	78a9      	ldrb	r1, [r5, #2]
    1622:	f7ff fd75 	bl	1110 <crc16_ccitt_update>
    1626:	0004      	movs	r4, r0
    for (uint32_t i = 0u; i < g_output_sample_count; i += 2u) {
    1628:	3602      	adds	r6, #2
    162a:	4b0f      	ldr	r3, [pc, #60]	@ (1668 <emit_frame_binary+0xdc>)
    162c:	681b      	ldr	r3, [r3, #0]
    162e:	42b3      	cmp	r3, r6
    1630:	d911      	bls.n	1656 <emit_frame_binary+0xca>
        if ((i & 0x3Fu) == 0u) {
    1632:	06b3      	lsls	r3, r6, #26
    1634:	d0dc      	beq.n	15f0 <emit_frame_binary+0x64>
        const uint16_t sample_a = (uint16_t)(g_adc_buffer[i] & 0x0FFFu);
    1636:	4b0f      	ldr	r3, [pc, #60]	@ (1674 <emit_frame_binary+0xe8>)
    1638:	0072      	lsls	r2, r6, #1
    163a:	5ad3      	ldrh	r3, [r2, r3]
    163c:	051b      	lsls	r3, r3, #20
    163e:	0d1b      	lsrs	r3, r3, #20
        const uint16_t sample_b = (uint16_t)(((i + 1u) < g_output_sample_count) ? (g_adc_buffer[i + 1u] & 0x0FFFu) : 0u);
    1640:	1c72      	adds	r2, r6, #1
    1642:	4909      	ldr	r1, [pc, #36]	@ (1668 <emit_frame_binary+0xdc>)
    1644:	6809      	ldr	r1, [r1, #0]
    1646:	428a      	cmp	r2, r1
    1648:	d2d5      	bcs.n	15f6 <emit_frame_binary+0x6a>
    164a:	490a      	ldr	r1, [pc, #40]	@ (1674 <emit_frame_binary+0xe8>)
    164c:	0052      	lsls	r2, r2, #1
    164e:	5a52      	ldrh	r2, [r2, r1]
    1650:	0512      	lsls	r2, r2, #20
    1652:	0d12      	lsrs	r2, r2, #20
    1654:	e7d0      	b.n	15f8 <emit_frame_binary+0x6c>
    uart_write_byte((uint8_t)(crc & 0xFFu));
    1656:	b2e0      	uxtb	r0, r4
    1658:	f7ff fde2 	bl	1220 <uart_write_byte>
    uart_write_byte((uint8_t)((crc >> 8u) & 0xFFu));
    165c:	0a20      	lsrs	r0, r4, #8
    165e:	b2c0      	uxtb	r0, r0
    1660:	f7ff fdde 	bl	1220 <uart_write_byte>
}
    1664:	b004      	add	sp, #16
    1666:	bd70      	pop	{r4, r5, r6, pc}
    1668:	1000001c 	.word	0x1000001c
    166c:	100002c8 	.word	0x100002c8
    1670:	0000ffff 	.word	0x0000ffff
    1674:	100002d8 	.word	0x100002d8

00001678 <emit_frame_envelope>:
{
    1678:	b5f8      	push	{r3, r4, r5, r6, r7, lr}
    uart_write_byte('E');
    167a:	2045      	movs	r0, #69	@ 0x45
    167c:	f7ff fdd0 	bl	1220 <uart_write_byte>
    uart_write_byte(' ');
    1680:	2020      	movs	r0, #32
    1682:	f7ff fdcd 	bl	1220 <uart_write_byte>
    for (uint32_t i = 0u; i < g_output_sample_count; ++i) {
    1686:	2500      	movs	r5, #0
    1688:	e00e      	b.n	16a8 <emit_frame_envelope+0x30>
        uart_write_byte((uint8_t)(((g_adc_buffer[i] >> 6u) & 0x3Fu) + '?'));
    168a:	4e0d      	ldr	r6, [pc, #52]	@ (16c0 <emit_frame_envelope+0x48>)
    168c:	006f      	lsls	r7, r5, #1
    168e:	5bb8      	ldrh	r0, [r7, r6]
    1690:	0980      	lsrs	r0, r0, #6
    1692:	243f      	movs	r4, #63	@ 0x3f
    1694:	4020      	ands	r0, r4
    1696:	303f      	adds	r0, #63	@ 0x3f
    1698:	f7ff fdc2 	bl	1220 <uart_write_byte>
        uart_write_byte((uint8_t)((g_adc_buffer[i] & 0x3Fu) + '?'));
    169c:	5bb8      	ldrh	r0, [r7, r6]
    169e:	4020      	ands	r0, r4
    16a0:	303f      	adds	r0, #63	@ 0x3f
    16a2:	f7ff fdbd 	bl	1220 <uart_write_byte>
    for (uint32_t i = 0u; i < g_output_sample_count; ++i) {
    16a6:	3501      	adds	r5, #1
    16a8:	4b06      	ldr	r3, [pc, #24]	@ (16c4 <emit_frame_envelope+0x4c>)
    16aa:	681b      	ldr	r3, [r3, #0]
    16ac:	42ab      	cmp	r3, r5
    16ae:	d904      	bls.n	16ba <emit_frame_envelope+0x42>
        if ((i & 0x1Fu) == 0u) {
    16b0:	06eb      	lsls	r3, r5, #27
    16b2:	d1ea      	bne.n	168a <emit_frame_envelope+0x12>
            pump_uart_rx();
    16b4:	f7ff fd90 	bl	11d8 <pump_uart_rx>
    16b8:	e7e7      	b.n	168a <emit_frame_envelope+0x12>
    uart_write_crlf();
    16ba:	f7ff fdef 	bl	129c <uart_write_crlf>
}
    16be:	bdf8      	pop	{r3, r4, r5, r6, r7, pc}
    16c0:	100002d8 	.word	0x100002d8
    16c4:	1000001c 	.word	0x1000001c

000016c8 <emit_current_frame>:
{
    16c8:	b510      	push	{r4, lr}
    ++g_frame_sequence;
    16ca:	4a13      	ldr	r2, [pc, #76]	@ (1718 <emit_current_frame+0x50>)
    16cc:	6813      	ldr	r3, [r2, #0]
    16ce:	3301      	adds	r3, #1
    16d0:	6013      	str	r3, [r2, #0]
    if (g_config.format == OUTPUT_FORMAT_ENV) {
    16d2:	4b12      	ldr	r3, [pc, #72]	@ (171c <emit_current_frame+0x54>)
    16d4:	785b      	ldrb	r3, [r3, #1]
    16d6:	2b03      	cmp	r3, #3
    16d8:	d00b      	beq.n	16f2 <emit_current_frame+0x2a>
    switch (g_config.format) {
    16da:	4b10      	ldr	r3, [pc, #64]	@ (171c <emit_current_frame+0x54>)
    16dc:	785b      	ldrb	r3, [r3, #1]
    16de:	2b02      	cmp	r3, #2
    16e0:	d012      	beq.n	1708 <emit_current_frame+0x40>
    16e2:	d809      	bhi.n	16f8 <emit_current_frame+0x30>
    16e4:	2b00      	cmp	r3, #0
    16e6:	d00c      	beq.n	1702 <emit_current_frame+0x3a>
    16e8:	2b01      	cmp	r3, #1
    16ea:	d110      	bne.n	170e <emit_current_frame+0x46>
        emit_frame_text();
    16ec:	f7ff ff16 	bl	151c <emit_frame_text>
        break;
    16f0:	e009      	b.n	1706 <emit_current_frame+0x3e>
        build_envelope_frame();
    16f2:	f7ff fcc5 	bl	1080 <build_envelope_frame>
    16f6:	e7f0      	b.n	16da <emit_current_frame+0x12>
    switch (g_config.format) {
    16f8:	2b03      	cmp	r3, #3
    16fa:	d108      	bne.n	170e <emit_current_frame+0x46>
        emit_frame_envelope();
    16fc:	f7ff ffbc 	bl	1678 <emit_frame_envelope>
        break;
    1700:	e001      	b.n	1706 <emit_current_frame+0x3e>
        emit_frame_compact();
    1702:	f7ff fee3 	bl	14cc <emit_frame_compact>
}
    1706:	bd10      	pop	{r4, pc}
        emit_frame_binary();
    1708:	f7ff ff40 	bl	158c <emit_frame_binary>
        break;
    170c:	e7fb      	b.n	1706 <emit_current_frame+0x3e>
        emit_error("FORMAT");
    170e:	4804      	ldr	r0, [pc, #16]	@ (1720 <emit_current_frame+0x58>)
    1710:	f7ff fe58 	bl	13c4 <emit_error>
}
    1714:	e7f7      	b.n	1706 <emit_current_frame+0x3e>
    1716:	46c0      	nop			@ (mov r8, r8)
    1718:	100002c8 	.word	0x100002c8
    171c:	10000004 	.word	0x10000004
    1720:	00001fa0 	.word	0x00001fa0

00001724 <string_starts_with>:
{
    1724:	b570      	push	{r4, r5, r6, lr}
    1726:	0005      	movs	r5, r0
    1728:	000c      	movs	r4, r1
    const size_t prefix_len = strlen(prefix);
    172a:	0008      	movs	r0, r1
    172c:	f7ff f876 	bl	81c <strlen>
    1730:	0002      	movs	r2, r0
    return strncmp(text, prefix, prefix_len) == 0;
    1732:	0021      	movs	r1, r4
    1734:	0028      	movs	r0, r5
    1736:	f7ff f89f 	bl	878 <strncmp>
    173a:	4243      	negs	r3, r0
    173c:	4158      	adcs	r0, r3
    173e:	b2c0      	uxtb	r0, r0
}
    1740:	bd70      	pop	{r4, r5, r6, pc}

00001742 <string_equals>:
{
    1742:	b510      	push	{r4, lr}
    return strcmp(lhs, rhs) == 0;
    1744:	f7ff f918 	bl	978 <strcmp>
    1748:	4243      	negs	r3, r0
    174a:	4158      	adcs	r0, r3
    174c:	b2c0      	uxtb	r0, r0
}
    174e:	bd10      	pop	{r4, pc}

00001750 <handle_command>:
{
    1750:	b510      	push	{r4, lr}
    1752:	b082      	sub	sp, #8
    1754:	0004      	movs	r4, r0
    if (string_equals(line, "AT")) {
    1756:	49be      	ldr	r1, [pc, #760]	@ (1a50 <handle_command+0x300>)
    1758:	f7ff fff3 	bl	1742 <string_equals>
    175c:	2800      	cmp	r0, #0
    175e:	d132      	bne.n	17c6 <handle_command+0x76>
    if (string_equals(line, "ATI")) {
    1760:	49bc      	ldr	r1, [pc, #752]	@ (1a54 <handle_command+0x304>)
    1762:	0020      	movs	r0, r4
    1764:	f7ff ffed 	bl	1742 <string_equals>
    1768:	2800      	cmp	r0, #0
    176a:	d130      	bne.n	17ce <handle_command+0x7e>
    if (string_equals(line, "ATCFG?")) {
    176c:	49ba      	ldr	r1, [pc, #744]	@ (1a58 <handle_command+0x308>)
    176e:	0020      	movs	r0, r4
    1770:	f7ff ffe7 	bl	1742 <string_equals>
    1774:	2800      	cmp	r0, #0
    1776:	d12f      	bne.n	17d8 <handle_command+0x88>
    if (string_equals(line, "ATMODE?")) {
    1778:	49b8      	ldr	r1, [pc, #736]	@ (1a5c <handle_command+0x30c>)
    177a:	0020      	movs	r0, r4
    177c:	f7ff ffe1 	bl	1742 <string_equals>
    1780:	2800      	cmp	r0, #0
    1782:	d12e      	bne.n	17e2 <handle_command+0x92>
    if (string_starts_with(line, "ATMODE=")) {
    1784:	49b6      	ldr	r1, [pc, #728]	@ (1a60 <handle_command+0x310>)
    1786:	0020      	movs	r0, r4
    1788:	f7ff ffcc 	bl	1724 <string_starts_with>
    178c:	2800      	cmp	r0, #0
    178e:	d046      	beq.n	181e <handle_command+0xce>
        if (capture_is_active()) {
    1790:	f7ff fac6 	bl	d20 <capture_is_active>
    1794:	2800      	cmp	r0, #0
    1796:	d130      	bne.n	17fa <handle_command+0xaa>
        const char *value = line + strlen("ATMODE=");
    1798:	3407      	adds	r4, #7
        if (string_equals(value, "SINGLE")) {
    179a:	49b2      	ldr	r1, [pc, #712]	@ (1a64 <handle_command+0x314>)
    179c:	0020      	movs	r0, r4
    179e:	f7ff ffd0 	bl	1742 <string_equals>
    17a2:	2800      	cmp	r0, #0
    17a4:	d12d      	bne.n	1802 <handle_command+0xb2>
        } else if (string_equals(value, "NSHOT")) {
    17a6:	49b0      	ldr	r1, [pc, #704]	@ (1a68 <handle_command+0x318>)
    17a8:	0020      	movs	r0, r4
    17aa:	f7ff ffca 	bl	1742 <string_equals>
    17ae:	2800      	cmp	r0, #0
    17b0:	d12d      	bne.n	180e <handle_command+0xbe>
        } else if (string_equals(value, "CONTINUOUS")) {
    17b2:	49ae      	ldr	r1, [pc, #696]	@ (1a6c <handle_command+0x31c>)
    17b4:	0020      	movs	r0, r4
    17b6:	f7ff ffc4 	bl	1742 <string_equals>
    17ba:	2800      	cmp	r0, #0
    17bc:	d02b      	beq.n	1816 <handle_command+0xc6>
            g_config.mode = CAPTURE_MODE_CONTINUOUS;
    17be:	4bac      	ldr	r3, [pc, #688]	@ (1a70 <handle_command+0x320>)
    17c0:	2202      	movs	r2, #2
    17c2:	701a      	strb	r2, [r3, #0]
    17c4:	e020      	b.n	1808 <handle_command+0xb8>
        emit_ok();
    17c6:	f7ff fdd9 	bl	137c <emit_ok>
}
    17ca:	b002      	add	sp, #8
    17cc:	bd10      	pop	{r4, pc}
        emit_info();
    17ce:	f7ff fd6d 	bl	12ac <emit_info>
        emit_ok();
    17d2:	f7ff fdd3 	bl	137c <emit_ok>
        return;
    17d6:	e7f8      	b.n	17ca <handle_command+0x7a>
        emit_config();
    17d8:	f7ff fd7a 	bl	12d0 <emit_config>
        emit_ok();
    17dc:	f7ff fdce 	bl	137c <emit_ok>
        return;
    17e0:	e7f3      	b.n	17ca <handle_command+0x7a>
        emit_query_value("MODE", mode_to_string(g_config.mode));
    17e2:	4ba3      	ldr	r3, [pc, #652]	@ (1a70 <handle_command+0x320>)
    17e4:	7818      	ldrb	r0, [r3, #0]
    17e6:	f7ff f91b 	bl	a20 <mode_to_string>
    17ea:	0001      	movs	r1, r0
    17ec:	4ba1      	ldr	r3, [pc, #644]	@ (1a74 <handle_command+0x324>)
    17ee:	0018      	movs	r0, r3
    17f0:	f7ff fdfe 	bl	13f0 <emit_query_value>
        emit_ok();
    17f4:	f7ff fdc2 	bl	137c <emit_ok>
        return;
    17f8:	e7e7      	b.n	17ca <handle_command+0x7a>
            emit_error("BUSY");
    17fa:	489f      	ldr	r0, [pc, #636]	@ (1a78 <handle_command+0x328>)
    17fc:	f7ff fde2 	bl	13c4 <emit_error>
            return;
    1800:	e7e3      	b.n	17ca <handle_command+0x7a>
            g_config.mode = CAPTURE_MODE_SINGLE;
    1802:	4b9b      	ldr	r3, [pc, #620]	@ (1a70 <handle_command+0x320>)
    1804:	2200      	movs	r2, #0
    1806:	701a      	strb	r2, [r3, #0]
        emit_ok();
    1808:	f7ff fdb8 	bl	137c <emit_ok>
        return;
    180c:	e7dd      	b.n	17ca <handle_command+0x7a>
            g_config.mode = CAPTURE_MODE_NSHOT;
    180e:	4b98      	ldr	r3, [pc, #608]	@ (1a70 <handle_command+0x320>)
    1810:	2201      	movs	r2, #1
    1812:	701a      	strb	r2, [r3, #0]
    1814:	e7f8      	b.n	1808 <handle_command+0xb8>
            emit_error("BADARG");
    1816:	4899      	ldr	r0, [pc, #612]	@ (1a7c <handle_command+0x32c>)
    1818:	f7ff fdd4 	bl	13c4 <emit_error>
            return;
    181c:	e7d5      	b.n	17ca <handle_command+0x7a>
    if (string_equals(line, "ATNSHOT?")) {
    181e:	4998      	ldr	r1, [pc, #608]	@ (1a80 <handle_command+0x330>)
    1820:	0020      	movs	r0, r4
    1822:	f7ff ff8e 	bl	1742 <string_equals>
    1826:	2800      	cmp	r0, #0
    1828:	d117      	bne.n	185a <handle_command+0x10a>
    if (string_starts_with(line, "ATNSHOT=")) {
    182a:	4996      	ldr	r1, [pc, #600]	@ (1a84 <handle_command+0x334>)
    182c:	0020      	movs	r0, r4
    182e:	f7ff ff79 	bl	1724 <string_starts_with>
    1832:	2800      	cmp	r0, #0
    1834:	d022      	beq.n	187c <handle_command+0x12c>
        if (capture_is_active()) {
    1836:	f7ff fa73 	bl	d20 <capture_is_active>
    183a:	2800      	cmp	r0, #0
    183c:	d115      	bne.n	186a <handle_command+0x11a>
        if (!parse_u32(line + strlen("ATNSHOT="), &value) || value == 0u) {
    183e:	0020      	movs	r0, r4
    1840:	3008      	adds	r0, #8
    1842:	a901      	add	r1, sp, #4
    1844:	f7ff f922 	bl	a8c <parse_u32>
    1848:	2800      	cmp	r0, #0
    184a:	d002      	beq.n	1852 <handle_command+0x102>
    184c:	9b01      	ldr	r3, [sp, #4]
    184e:	2b00      	cmp	r3, #0
    1850:	d10f      	bne.n	1872 <handle_command+0x122>
            emit_error("BADARG");
    1852:	488a      	ldr	r0, [pc, #552]	@ (1a7c <handle_command+0x32c>)
    1854:	f7ff fdb6 	bl	13c4 <emit_error>
            return;
    1858:	e7b7      	b.n	17ca <handle_command+0x7a>
        emit_query_value_u32("NSHOT", g_config.nshot);
    185a:	4b85      	ldr	r3, [pc, #532]	@ (1a70 <handle_command+0x320>)
    185c:	6859      	ldr	r1, [r3, #4]
    185e:	4882      	ldr	r0, [pc, #520]	@ (1a68 <handle_command+0x318>)
    1860:	f7ff fdda 	bl	1418 <emit_query_value_u32>
        emit_ok();
    1864:	f7ff fd8a 	bl	137c <emit_ok>
        return;
    1868:	e7af      	b.n	17ca <handle_command+0x7a>
            emit_error("BUSY");
    186a:	4883      	ldr	r0, [pc, #524]	@ (1a78 <handle_command+0x328>)
    186c:	f7ff fdaa 	bl	13c4 <emit_error>
            return;
    1870:	e7ab      	b.n	17ca <handle_command+0x7a>
        g_config.nshot = value;
    1872:	4a7f      	ldr	r2, [pc, #508]	@ (1a70 <handle_command+0x320>)
    1874:	6053      	str	r3, [r2, #4]
        emit_ok();
    1876:	f7ff fd81 	bl	137c <emit_ok>
        return;
    187a:	e7a6      	b.n	17ca <handle_command+0x7a>
    if (string_equals(line, "ATFMT?")) {
    187c:	4982      	ldr	r1, [pc, #520]	@ (1a88 <handle_command+0x338>)
    187e:	0020      	movs	r0, r4
    1880:	f7ff ff5f 	bl	1742 <string_equals>
    1884:	2800      	cmp	r0, #0
    1886:	d126      	bne.n	18d6 <handle_command+0x186>
    if (string_starts_with(line, "ATFMT=")) {
    1888:	4980      	ldr	r1, [pc, #512]	@ (1a8c <handle_command+0x33c>)
    188a:	0020      	movs	r0, r4
    188c:	f7ff ff4a 	bl	1724 <string_starts_with>
    1890:	2800      	cmp	r0, #0
    1892:	d042      	beq.n	191a <handle_command+0x1ca>
        if (capture_is_active()) {
    1894:	f7ff fa44 	bl	d20 <capture_is_active>
    1898:	2800      	cmp	r0, #0
    189a:	d128      	bne.n	18ee <handle_command+0x19e>
        const char *value = line + strlen("ATFMT=");
    189c:	3406      	adds	r4, #6
        if (string_equals(value, "COMPACT")) {
    189e:	497c      	ldr	r1, [pc, #496]	@ (1a90 <handle_command+0x340>)
    18a0:	0020      	movs	r0, r4
    18a2:	f7ff ff4e 	bl	1742 <string_equals>
    18a6:	2800      	cmp	r0, #0
    18a8:	d125      	bne.n	18f6 <handle_command+0x1a6>
        } else if (string_equals(value, "TEXT")) {
    18aa:	497a      	ldr	r1, [pc, #488]	@ (1a94 <handle_command+0x344>)
    18ac:	0020      	movs	r0, r4
    18ae:	f7ff ff48 	bl	1742 <string_equals>
    18b2:	2800      	cmp	r0, #0
    18b4:	d125      	bne.n	1902 <handle_command+0x1b2>
        } else if (string_equals(value, "BIN")) {
    18b6:	4978      	ldr	r1, [pc, #480]	@ (1a98 <handle_command+0x348>)
    18b8:	0020      	movs	r0, r4
    18ba:	f7ff ff42 	bl	1742 <string_equals>
    18be:	2800      	cmp	r0, #0
    18c0:	d123      	bne.n	190a <handle_command+0x1ba>
        } else if (string_equals(value, "ENV")) {
    18c2:	4976      	ldr	r1, [pc, #472]	@ (1a9c <handle_command+0x34c>)
    18c4:	0020      	movs	r0, r4
    18c6:	f7ff ff3c 	bl	1742 <string_equals>
    18ca:	2800      	cmp	r0, #0
    18cc:	d021      	beq.n	1912 <handle_command+0x1c2>
            g_config.format = OUTPUT_FORMAT_ENV;
    18ce:	4b68      	ldr	r3, [pc, #416]	@ (1a70 <handle_command+0x320>)
    18d0:	2203      	movs	r2, #3
    18d2:	705a      	strb	r2, [r3, #1]
    18d4:	e012      	b.n	18fc <handle_command+0x1ac>
        emit_query_value("FMT", format_to_string(g_config.format));
    18d6:	4b66      	ldr	r3, [pc, #408]	@ (1a70 <handle_command+0x320>)
    18d8:	7858      	ldrb	r0, [r3, #1]
    18da:	f7ff f8b7 	bl	a4c <format_to_string>
    18de:	0001      	movs	r1, r0
    18e0:	4b6f      	ldr	r3, [pc, #444]	@ (1aa0 <handle_command+0x350>)
    18e2:	0018      	movs	r0, r3
    18e4:	f7ff fd84 	bl	13f0 <emit_query_value>
        emit_ok();
    18e8:	f7ff fd48 	bl	137c <emit_ok>
        return;
    18ec:	e76d      	b.n	17ca <handle_command+0x7a>
            emit_error("BUSY");
    18ee:	4862      	ldr	r0, [pc, #392]	@ (1a78 <handle_command+0x328>)
    18f0:	f7ff fd68 	bl	13c4 <emit_error>
            return;
    18f4:	e769      	b.n	17ca <handle_command+0x7a>
            g_config.format = OUTPUT_FORMAT_COMPACT;
    18f6:	4b5e      	ldr	r3, [pc, #376]	@ (1a70 <handle_command+0x320>)
    18f8:	2200      	movs	r2, #0
    18fa:	705a      	strb	r2, [r3, #1]
        emit_ok();
    18fc:	f7ff fd3e 	bl	137c <emit_ok>
        return;
    1900:	e763      	b.n	17ca <handle_command+0x7a>
            g_config.format = OUTPUT_FORMAT_TEXT;
    1902:	4b5b      	ldr	r3, [pc, #364]	@ (1a70 <handle_command+0x320>)
    1904:	2201      	movs	r2, #1
    1906:	705a      	strb	r2, [r3, #1]
    1908:	e7f8      	b.n	18fc <handle_command+0x1ac>
            g_config.format = OUTPUT_FORMAT_BIN;
    190a:	4b59      	ldr	r3, [pc, #356]	@ (1a70 <handle_command+0x320>)
    190c:	2202      	movs	r2, #2
    190e:	705a      	strb	r2, [r3, #1]
    1910:	e7f4      	b.n	18fc <handle_command+0x1ac>
            emit_error("BADARG");
    1912:	485a      	ldr	r0, [pc, #360]	@ (1a7c <handle_command+0x32c>)
    1914:	f7ff fd56 	bl	13c4 <emit_error>
            return;
    1918:	e757      	b.n	17ca <handle_command+0x7a>
    if (string_equals(line, "ATTXFREQ?")) {
    191a:	4962      	ldr	r1, [pc, #392]	@ (1aa4 <handle_command+0x354>)
    191c:	0020      	movs	r0, r4
    191e:	f7ff ff10 	bl	1742 <string_equals>
    1922:	2800      	cmp	r0, #0
    1924:	d11a      	bne.n	195c <handle_command+0x20c>
    if (string_starts_with(line, "ATTXFREQ=")) {
    1926:	4960      	ldr	r1, [pc, #384]	@ (1aa8 <handle_command+0x358>)
    1928:	0020      	movs	r0, r4
    192a:	f7ff fefb 	bl	1724 <string_starts_with>
    192e:	2800      	cmp	r0, #0
    1930:	d029      	beq.n	1986 <handle_command+0x236>
        if (capture_is_active()) {
    1932:	f7ff f9f5 	bl	d20 <capture_is_active>
    1936:	2800      	cmp	r0, #0
    1938:	d118      	bne.n	196c <handle_command+0x21c>
        if (!parse_u32(line + strlen("ATTXFREQ="), &value)) {
    193a:	0020      	movs	r0, r4
    193c:	3009      	adds	r0, #9
    193e:	a901      	add	r1, sp, #4
    1940:	f7ff f8a4 	bl	a8c <parse_u32>
    1944:	2800      	cmp	r0, #0
    1946:	d015      	beq.n	1974 <handle_command+0x224>
        if (value < AT_TXFREQ_MIN_HZ || value > AT_TXFREQ_MAX_HZ) {
    1948:	9b01      	ldr	r3, [sp, #4]
    194a:	4a58      	ldr	r2, [pc, #352]	@ (1aac <handle_command+0x35c>)
    194c:	1899      	adds	r1, r3, r2
    194e:	4a58      	ldr	r2, [pc, #352]	@ (1ab0 <handle_command+0x360>)
    1950:	4291      	cmp	r1, r2
    1952:	d913      	bls.n	197c <handle_command+0x22c>
            emit_error("RANGE");
    1954:	4857      	ldr	r0, [pc, #348]	@ (1ab4 <handle_command+0x364>)
    1956:	f7ff fd35 	bl	13c4 <emit_error>
            return;
    195a:	e736      	b.n	17ca <handle_command+0x7a>
        emit_query_value_u32("TXFREQ", g_config.tx_frequency_hz);
    195c:	4b44      	ldr	r3, [pc, #272]	@ (1a70 <handle_command+0x320>)
    195e:	6899      	ldr	r1, [r3, #8]
    1960:	4855      	ldr	r0, [pc, #340]	@ (1ab8 <handle_command+0x368>)
    1962:	f7ff fd59 	bl	1418 <emit_query_value_u32>
        emit_ok();
    1966:	f7ff fd09 	bl	137c <emit_ok>
        return;
    196a:	e72e      	b.n	17ca <handle_command+0x7a>
            emit_error("BUSY");
    196c:	4842      	ldr	r0, [pc, #264]	@ (1a78 <handle_command+0x328>)
    196e:	f7ff fd29 	bl	13c4 <emit_error>
            return;
    1972:	e72a      	b.n	17ca <handle_command+0x7a>
            emit_error("BADARG");
    1974:	4841      	ldr	r0, [pc, #260]	@ (1a7c <handle_command+0x32c>)
    1976:	f7ff fd25 	bl	13c4 <emit_error>
            return;
    197a:	e726      	b.n	17ca <handle_command+0x7a>
        g_config.tx_frequency_hz = value;
    197c:	4a3c      	ldr	r2, [pc, #240]	@ (1a70 <handle_command+0x320>)
    197e:	6093      	str	r3, [r2, #8]
        emit_ok();
    1980:	f7ff fcfc 	bl	137c <emit_ok>
        return;
    1984:	e721      	b.n	17ca <handle_command+0x7a>
    if (string_equals(line, "ATTXCYCLES?")) {
    1986:	494d      	ldr	r1, [pc, #308]	@ (1abc <handle_command+0x36c>)
    1988:	0020      	movs	r0, r4
    198a:	f7ff feda 	bl	1742 <string_equals>
    198e:	2800      	cmp	r0, #0
    1990:	d118      	bne.n	19c4 <handle_command+0x274>
    if (string_starts_with(line, "ATTXCYCLES=")) {
    1992:	494b      	ldr	r1, [pc, #300]	@ (1ac0 <handle_command+0x370>)
    1994:	0020      	movs	r0, r4
    1996:	f7ff fec5 	bl	1724 <string_starts_with>
    199a:	2800      	cmp	r0, #0
    199c:	d027      	beq.n	19ee <handle_command+0x29e>
        if (capture_is_active()) {
    199e:	f7ff f9bf 	bl	d20 <capture_is_active>
    19a2:	2800      	cmp	r0, #0
    19a4:	d116      	bne.n	19d4 <handle_command+0x284>
        if (!parse_u32(line + strlen("ATTXCYCLES="), &value)) {
    19a6:	0020      	movs	r0, r4
    19a8:	300b      	adds	r0, #11
    19aa:	a901      	add	r1, sp, #4
    19ac:	f7ff f86e 	bl	a8c <parse_u32>
    19b0:	2800      	cmp	r0, #0
    19b2:	d013      	beq.n	19dc <handle_command+0x28c>
        if (value < AT_TXCYCLES_MIN || value > AT_TXCYCLES_MAX) {
    19b4:	9b01      	ldr	r3, [sp, #4]
    19b6:	1e5a      	subs	r2, r3, #1
    19b8:	2afe      	cmp	r2, #254	@ 0xfe
    19ba:	d913      	bls.n	19e4 <handle_command+0x294>
            emit_error("RANGE");
    19bc:	483d      	ldr	r0, [pc, #244]	@ (1ab4 <handle_command+0x364>)
    19be:	f7ff fd01 	bl	13c4 <emit_error>
            return;
    19c2:	e702      	b.n	17ca <handle_command+0x7a>
        emit_query_value_u32("TXCYCLES", g_config.tx_cycles);
    19c4:	4b2a      	ldr	r3, [pc, #168]	@ (1a70 <handle_command+0x320>)
    19c6:	68d9      	ldr	r1, [r3, #12]
    19c8:	483e      	ldr	r0, [pc, #248]	@ (1ac4 <handle_command+0x374>)
    19ca:	f7ff fd25 	bl	1418 <emit_query_value_u32>
        emit_ok();
    19ce:	f7ff fcd5 	bl	137c <emit_ok>
        return;
    19d2:	e6fa      	b.n	17ca <handle_command+0x7a>
            emit_error("BUSY");
    19d4:	4828      	ldr	r0, [pc, #160]	@ (1a78 <handle_command+0x328>)
    19d6:	f7ff fcf5 	bl	13c4 <emit_error>
            return;
    19da:	e6f6      	b.n	17ca <handle_command+0x7a>
            emit_error("BADARG");
    19dc:	4827      	ldr	r0, [pc, #156]	@ (1a7c <handle_command+0x32c>)
    19de:	f7ff fcf1 	bl	13c4 <emit_error>
            return;
    19e2:	e6f2      	b.n	17ca <handle_command+0x7a>
        g_config.tx_cycles = value;
    19e4:	4a22      	ldr	r2, [pc, #136]	@ (1a70 <handle_command+0x320>)
    19e6:	60d3      	str	r3, [r2, #12]
        emit_ok();
    19e8:	f7ff fcc8 	bl	137c <emit_ok>
        return;
    19ec:	e6ed      	b.n	17ca <handle_command+0x7a>
    if (string_equals(line, "ATSRATE?")) {
    19ee:	4936      	ldr	r1, [pc, #216]	@ (1ac8 <handle_command+0x378>)
    19f0:	0020      	movs	r0, r4
    19f2:	f7ff fea6 	bl	1742 <string_equals>
    19f6:	2800      	cmp	r0, #0
    19f8:	d11a      	bne.n	1a30 <handle_command+0x2e0>
    if (string_starts_with(line, "ATSRATE=")) {
    19fa:	4934      	ldr	r1, [pc, #208]	@ (1acc <handle_command+0x37c>)
    19fc:	0020      	movs	r0, r4
    19fe:	f7ff fe91 	bl	1724 <string_starts_with>
    1a02:	2800      	cmp	r0, #0
    1a04:	d06f      	beq.n	1ae6 <handle_command+0x396>
        if (capture_is_active()) {
    1a06:	f7ff f98b 	bl	d20 <capture_is_active>
    1a0a:	2800      	cmp	r0, #0
    1a0c:	d118      	bne.n	1a40 <handle_command+0x2f0>
        if (!parse_u32(line + strlen("ATSRATE="), &value)) {
    1a0e:	0020      	movs	r0, r4
    1a10:	3008      	adds	r0, #8
    1a12:	a901      	add	r1, sp, #4
    1a14:	f7ff f83a 	bl	a8c <parse_u32>
    1a18:	2800      	cmp	r0, #0
    1a1a:	d015      	beq.n	1a48 <handle_command+0x2f8>
        if (value < AT_SRATE_MIN_HZ || value > AT_SRATE_MAX_HZ) {
    1a1c:	9b01      	ldr	r3, [sp, #4]
    1a1e:	4a2c      	ldr	r2, [pc, #176]	@ (1ad0 <handle_command+0x380>)
    1a20:	1899      	adds	r1, r3, r2
    1a22:	4a2c      	ldr	r2, [pc, #176]	@ (1ad4 <handle_command+0x384>)
    1a24:	4291      	cmp	r1, r2
    1a26:	d959      	bls.n	1adc <handle_command+0x38c>
            emit_error("RANGE");
    1a28:	4822      	ldr	r0, [pc, #136]	@ (1ab4 <handle_command+0x364>)
    1a2a:	f7ff fccb 	bl	13c4 <emit_error>
            return;
    1a2e:	e6cc      	b.n	17ca <handle_command+0x7a>
        emit_query_value_u32("SRATE", g_config.adc_sample_rate_hz);
    1a30:	4b0f      	ldr	r3, [pc, #60]	@ (1a70 <handle_command+0x320>)
    1a32:	6919      	ldr	r1, [r3, #16]
    1a34:	4828      	ldr	r0, [pc, #160]	@ (1ad8 <handle_command+0x388>)
    1a36:	f7ff fcef 	bl	1418 <emit_query_value_u32>
        emit_ok();
    1a3a:	f7ff fc9f 	bl	137c <emit_ok>
        return;
    1a3e:	e6c4      	b.n	17ca <handle_command+0x7a>
            emit_error("BUSY");
    1a40:	480d      	ldr	r0, [pc, #52]	@ (1a78 <handle_command+0x328>)
    1a42:	f7ff fcbf 	bl	13c4 <emit_error>
            return;
    1a46:	e6c0      	b.n	17ca <handle_command+0x7a>
            emit_error("BADARG");
    1a48:	480c      	ldr	r0, [pc, #48]	@ (1a7c <handle_command+0x32c>)
    1a4a:	f7ff fcbb 	bl	13c4 <emit_error>
            return;
    1a4e:	e6bc      	b.n	17ca <handle_command+0x7a>
    1a50:	00001fa4 	.word	0x00001fa4
    1a54:	00001fa8 	.word	0x00001fa8
    1a58:	00001fac 	.word	0x00001fac
    1a5c:	00001fb4 	.word	0x00001fb4
    1a60:	00001fc4 	.word	0x00001fc4
    1a64:	00001e98 	.word	0x00001e98
    1a68:	00001ea0 	.word	0x00001ea0
    1a6c:	00001ea8 	.word	0x00001ea8
    1a70:	10000004 	.word	0x10000004
    1a74:	00001fbc 	.word	0x00001fbc
    1a78:	00001fcc 	.word	0x00001fcc
    1a7c:	00001fd4 	.word	0x00001fd4
    1a80:	00001fdc 	.word	0x00001fdc
    1a84:	00001fe8 	.word	0x00001fe8
    1a88:	00001ff4 	.word	0x00001ff4
    1a8c:	00002000 	.word	0x00002000
    1a90:	00001ebc 	.word	0x00001ebc
    1a94:	00001ec4 	.word	0x00001ec4
    1a98:	00001ecc 	.word	0x00001ecc
    1a9c:	00001ed0 	.word	0x00001ed0
    1aa0:	00001ffc 	.word	0x00001ffc
    1aa4:	00002008 	.word	0x00002008
    1aa8:	0000201c 	.word	0x0000201c
    1aac:	fffffc18 	.word	0xfffffc18
    1ab0:	000182b8 	.word	0x000182b8
    1ab4:	00002028 	.word	0x00002028
    1ab8:	00002014 	.word	0x00002014
    1abc:	00002030 	.word	0x00002030
    1ac0:	00002048 	.word	0x00002048
    1ac4:	0000203c 	.word	0x0000203c
    1ac8:	00002054 	.word	0x00002054
    1acc:	00002068 	.word	0x00002068
    1ad0:	ffffd8f0 	.word	0xffffd8f0
    1ad4:	000f1b30 	.word	0x000f1b30
    1ad8:	00002060 	.word	0x00002060
        g_config.adc_sample_rate_hz = value;
    1adc:	4a30      	ldr	r2, [pc, #192]	@ (1ba0 <handle_command+0x450>)
    1ade:	6113      	str	r3, [r2, #16]
        emit_ok();
    1ae0:	f7ff fc4c 	bl	137c <emit_ok>
        return;
    1ae4:	e671      	b.n	17ca <handle_command+0x7a>
    if (string_equals(line, "ATSAMPLES?")) {
    1ae6:	492f      	ldr	r1, [pc, #188]	@ (1ba4 <handle_command+0x454>)
    1ae8:	0020      	movs	r0, r4
    1aea:	f7ff fe2a 	bl	1742 <string_equals>
    1aee:	2800      	cmp	r0, #0
    1af0:	d117      	bne.n	1b22 <handle_command+0x3d2>
    if (string_equals(line, "ATGO")) {
    1af2:	492d      	ldr	r1, [pc, #180]	@ (1ba8 <handle_command+0x458>)
    1af4:	0020      	movs	r0, r4
    1af6:	f7ff fe24 	bl	1742 <string_equals>
    1afa:	2800      	cmp	r0, #0
    1afc:	d02a      	beq.n	1b54 <handle_command+0x404>
        if (capture_is_active()) {
    1afe:	f7ff f90f 	bl	d20 <capture_is_active>
    1b02:	2800      	cmp	r0, #0
    1b04:	d115      	bne.n	1b32 <handle_command+0x3e2>
        switch (g_config.mode) {
    1b06:	4b26      	ldr	r3, [pc, #152]	@ (1ba0 <handle_command+0x450>)
    1b08:	781b      	ldrb	r3, [r3, #0]
    1b0a:	2b01      	cmp	r3, #1
    1b0c:	d015      	beq.n	1b3a <handle_command+0x3ea>
    1b0e:	2b02      	cmp	r3, #2
    1b10:	d018      	beq.n	1b44 <handle_command+0x3f4>
    1b12:	2b00      	cmp	r3, #0
    1b14:	d11a      	bne.n	1b4c <handle_command+0x3fc>
            g_pending_frames = 1u;
    1b16:	4b25      	ldr	r3, [pc, #148]	@ (1bac <handle_command+0x45c>)
    1b18:	2201      	movs	r2, #1
    1b1a:	601a      	str	r2, [r3, #0]
        emit_ok();
    1b1c:	f7ff fc2e 	bl	137c <emit_ok>
        return;
    1b20:	e653      	b.n	17ca <handle_command+0x7a>
        emit_query_value_u32("SAMPLES", g_config.sample_count);
    1b22:	4b1f      	ldr	r3, [pc, #124]	@ (1ba0 <handle_command+0x450>)
    1b24:	4822      	ldr	r0, [pc, #136]	@ (1bb0 <handle_command+0x460>)
    1b26:	6959      	ldr	r1, [r3, #20]
    1b28:	f7ff fc76 	bl	1418 <emit_query_value_u32>
        emit_ok();
    1b2c:	f7ff fc26 	bl	137c <emit_ok>
        return;
    1b30:	e64b      	b.n	17ca <handle_command+0x7a>
            emit_error("BUSY");
    1b32:	4820      	ldr	r0, [pc, #128]	@ (1bb4 <handle_command+0x464>)
    1b34:	f7ff fc46 	bl	13c4 <emit_error>
            return;
    1b38:	e647      	b.n	17ca <handle_command+0x7a>
            g_pending_frames = g_config.nshot;
    1b3a:	4b19      	ldr	r3, [pc, #100]	@ (1ba0 <handle_command+0x450>)
    1b3c:	685a      	ldr	r2, [r3, #4]
    1b3e:	4b1b      	ldr	r3, [pc, #108]	@ (1bac <handle_command+0x45c>)
    1b40:	601a      	str	r2, [r3, #0]
            break;
    1b42:	e7eb      	b.n	1b1c <handle_command+0x3cc>
            g_continuous_active = true;
    1b44:	4b1c      	ldr	r3, [pc, #112]	@ (1bb8 <handle_command+0x468>)
    1b46:	2201      	movs	r2, #1
    1b48:	701a      	strb	r2, [r3, #0]
            break;
    1b4a:	e7e7      	b.n	1b1c <handle_command+0x3cc>
            emit_error("MODE");
    1b4c:	481b      	ldr	r0, [pc, #108]	@ (1bbc <handle_command+0x46c>)
    1b4e:	f7ff fc39 	bl	13c4 <emit_error>
            return;
    1b52:	e63a      	b.n	17ca <handle_command+0x7a>
    if (string_equals(line, "ATSTOP")) {
    1b54:	491a      	ldr	r1, [pc, #104]	@ (1bc0 <handle_command+0x470>)
    1b56:	0020      	movs	r0, r4
    1b58:	f7ff fdf3 	bl	1742 <string_equals>
    1b5c:	2800      	cmp	r0, #0
    1b5e:	d10d      	bne.n	1b7c <handle_command+0x42c>
    if (string_equals(line, "ATDEFAULT")) {
    1b60:	4918      	ldr	r1, [pc, #96]	@ (1bc4 <handle_command+0x474>)
    1b62:	0020      	movs	r0, r4
    1b64:	f7ff fded 	bl	1742 <string_equals>
    1b68:	2800      	cmp	r0, #0
    1b6a:	d014      	beq.n	1b96 <handle_command+0x446>
        if (capture_is_active()) {
    1b6c:	f7ff f8d8 	bl	d20 <capture_is_active>
    1b70:	2800      	cmp	r0, #0
    1b72:	d00b      	beq.n	1b8c <handle_command+0x43c>
            emit_error("BUSY");
    1b74:	480f      	ldr	r0, [pc, #60]	@ (1bb4 <handle_command+0x464>)
    1b76:	f7ff fc25 	bl	13c4 <emit_error>
            return;
    1b7a:	e626      	b.n	17ca <handle_command+0x7a>
        g_continuous_active = false;
    1b7c:	4b0e      	ldr	r3, [pc, #56]	@ (1bb8 <handle_command+0x468>)
    1b7e:	2200      	movs	r2, #0
    1b80:	701a      	strb	r2, [r3, #0]
        g_pending_frames = 0u;
    1b82:	4b0a      	ldr	r3, [pc, #40]	@ (1bac <handle_command+0x45c>)
    1b84:	601a      	str	r2, [r3, #0]
        emit_done_stopped();
    1b86:	f7ff fbef 	bl	1368 <emit_done_stopped>
        return;
    1b8a:	e61e      	b.n	17ca <handle_command+0x7a>
        apply_default_configuration();
    1b8c:	f7ff fad4 	bl	1138 <apply_default_configuration>
        emit_ok();
    1b90:	f7ff fbf4 	bl	137c <emit_ok>
        return;
    1b94:	e619      	b.n	17ca <handle_command+0x7a>
    emit_error("UNKNOWN");
    1b96:	480c      	ldr	r0, [pc, #48]	@ (1bc8 <handle_command+0x478>)
    1b98:	f7ff fc14 	bl	13c4 <emit_error>
    1b9c:	e615      	b.n	17ca <handle_command+0x7a>
    1b9e:	46c0      	nop			@ (mov r8, r8)
    1ba0:	10000004 	.word	0x10000004
    1ba4:	00002074 	.word	0x00002074
    1ba8:	00002088 	.word	0x00002088
    1bac:	100002cc 	.word	0x100002cc
    1bb0:	00002080 	.word	0x00002080
    1bb4:	00001fcc 	.word	0x00001fcc
    1bb8:	10000000 	.word	0x10000000
    1bbc:	00001fbc 	.word	0x00001fbc
    1bc0:	00002090 	.word	0x00002090
    1bc4:	00002098 	.word	0x00002098
    1bc8:	00001eb4 	.word	0x00001eb4

00001bcc <service_pending_command>:

static void service_pending_command(void)
{
    1bcc:	b510      	push	{r4, lr}
    if (g_pending_command_toolong) {
    1bce:	4b11      	ldr	r3, [pc, #68]	@ (1c14 <service_pending_command+0x48>)
    1bd0:	781b      	ldrb	r3, [r3, #0]
    1bd2:	2b00      	cmp	r3, #0
    1bd4:	d108      	bne.n	1be8 <service_pending_command+0x1c>
        g_pending_command_toolong = false;
        emit_error("TOOLONG");
    }

    if (g_pending_command_dropped) {
    1bd6:	4b10      	ldr	r3, [pc, #64]	@ (1c18 <service_pending_command+0x4c>)
    1bd8:	781b      	ldrb	r3, [r3, #0]
    1bda:	2b00      	cmp	r3, #0
    1bdc:	d10b      	bne.n	1bf6 <service_pending_command+0x2a>
        g_pending_command_dropped = false;
        emit_error("BUSY");
    }

    if (g_pending_command_ready) {
    1bde:	4b0f      	ldr	r3, [pc, #60]	@ (1c1c <service_pending_command+0x50>)
    1be0:	781b      	ldrb	r3, [r3, #0]
    1be2:	2b00      	cmp	r3, #0
    1be4:	d10e      	bne.n	1c04 <service_pending_command+0x38>
        g_pending_command_ready = false;
        handle_command(g_pending_command_buffer);
    }
}
    1be6:	bd10      	pop	{r4, pc}
        g_pending_command_toolong = false;
    1be8:	4b0a      	ldr	r3, [pc, #40]	@ (1c14 <service_pending_command+0x48>)
    1bea:	2200      	movs	r2, #0
    1bec:	701a      	strb	r2, [r3, #0]
        emit_error("TOOLONG");
    1bee:	480c      	ldr	r0, [pc, #48]	@ (1c20 <service_pending_command+0x54>)
    1bf0:	f7ff fbe8 	bl	13c4 <emit_error>
    1bf4:	e7ef      	b.n	1bd6 <service_pending_command+0xa>
        g_pending_command_dropped = false;
    1bf6:	4b08      	ldr	r3, [pc, #32]	@ (1c18 <service_pending_command+0x4c>)
    1bf8:	2200      	movs	r2, #0
    1bfa:	701a      	strb	r2, [r3, #0]
        emit_error("BUSY");
    1bfc:	4809      	ldr	r0, [pc, #36]	@ (1c24 <service_pending_command+0x58>)
    1bfe:	f7ff fbe1 	bl	13c4 <emit_error>
    1c02:	e7ec      	b.n	1bde <service_pending_command+0x12>
        g_pending_command_ready = false;
    1c04:	4b05      	ldr	r3, [pc, #20]	@ (1c1c <service_pending_command+0x50>)
    1c06:	2200      	movs	r2, #0
    1c08:	701a      	strb	r2, [r3, #0]
        handle_command(g_pending_command_buffer);
    1c0a:	4807      	ldr	r0, [pc, #28]	@ (1c28 <service_pending_command+0x5c>)
    1c0c:	f7ff fda0 	bl	1750 <handle_command>
}
    1c10:	e7e9      	b.n	1be6 <service_pending_command+0x1a>
    1c12:	46c0      	nop			@ (mov r8, r8)
    1c14:	10000201 	.word	0x10000201
    1c18:	10000200 	.word	0x10000200
    1c1c:	10000202 	.word	0x10000202
    1c20:	000020a4 	.word	0x000020a4
    1c24:	00001fcc 	.word	0x00001fcc
    1c28:	10000208 	.word	0x10000208

00001c2c <DMA0_IRQHandler>:

void DMA0_IRQHandler(void)
{
    1c2c:	b510      	push	{r4, lr}
    debug_pin_pulse(8u);
    1c2e:	2008      	movs	r0, #8
    1c30:	f7fe fee6 	bl	a00 <debug_pin_pulse>
    DMA0->COMMON[0].INTA = dma_channel_mask(DMA_CHANNEL_ADC);
    1c34:	4b03      	ldr	r3, [pc, #12]	@ (1c44 <DMA0_IRQHandler+0x18>)
    1c36:	2201      	movs	r2, #1
    1c38:	659a      	str	r2, [r3, #88]	@ 0x58
    ++g_dma_block_count;
    1c3a:	4a03      	ldr	r2, [pc, #12]	@ (1c48 <DMA0_IRQHandler+0x1c>)
    1c3c:	6813      	ldr	r3, [r2, #0]
    1c3e:	3301      	adds	r3, #1
    1c40:	6013      	str	r3, [r2, #0]
}
    1c42:	bd10      	pop	{r4, pc}
    1c44:	50008000 	.word	0x50008000
    1c48:	100002d4 	.word	0x100002d4

00001c4c <SCT0_IRQHandler>:

void SCT0_IRQHandler(void)
{
    1c4c:	b510      	push	{r4, lr}
    ++g_pulse_cycle_count;
    1c4e:	4a06      	ldr	r2, [pc, #24]	@ (1c68 <SCT0_IRQHandler+0x1c>)
    1c50:	6813      	ldr	r3, [r2, #0]
    1c52:	3301      	adds	r3, #1
    1c54:	6013      	str	r3, [r2, #0]
    debug_pin_pulse(1u);
    1c56:	2001      	movs	r0, #1
    1c58:	f7fe fed2 	bl	a00 <debug_pin_pulse>
    SCT0->EVFLAG = 1u << 0;
    1c5c:	4a03      	ldr	r2, [pc, #12]	@ (1c6c <SCT0_IRQHandler+0x20>)
    1c5e:	23f4      	movs	r3, #244	@ 0xf4
    1c60:	2101      	movs	r1, #1
    1c62:	50d1      	str	r1, [r2, r3]
}
    1c64:	bd10      	pop	{r4, pc}
    1c66:	46c0      	nop			@ (mov r8, r8)
    1c68:	100002d0 	.word	0x100002d0
    1c6c:	50004000 	.word	0x50004000

00001c70 <main>:

int main(void)
{
    1c70:	b510      	push	{r4, lr}
    SystemCoreClockUpdate();
    1c72:	f000 f85f 	bl	1d34 <SystemCoreClockUpdate>
    SYSCON->SYSAHBCLKCTRL |= mask;
    1c76:	4922      	ldr	r1, [pc, #136]	@ (1d00 <main+0x90>)
    1c78:	2280      	movs	r2, #128	@ 0x80
    1c7a:	588b      	ldr	r3, [r1, r2]
    1c7c:	2040      	movs	r0, #64	@ 0x40
    1c7e:	4303      	orrs	r3, r0
    1c80:	508b      	str	r3, [r1, r2]
    GPIO->DIRSET[0] = pin_mask(pin);
    1c82:	23a0      	movs	r3, #160	@ 0xa0
    1c84:	061b      	lsls	r3, r3, #24
    1c86:	228e      	movs	r2, #142	@ 0x8e
    1c88:	0192      	lsls	r2, r2, #6
    1c8a:	2180      	movs	r1, #128	@ 0x80
    1c8c:	01c9      	lsls	r1, r1, #7
    1c8e:	5099      	str	r1, [r3, r2]
    1c90:	2180      	movs	r1, #128	@ 0x80
    1c92:	0209      	lsls	r1, r1, #8
    1c94:	5099      	str	r1, [r3, r2]
    1c96:	30c1      	adds	r0, #193	@ 0xc1
    1c98:	30ff      	adds	r0, #255	@ 0xff
    1c9a:	5098      	str	r0, [r3, r2]
        GPIO->CLR[0] = pin_mask(pin);
    1c9c:	3a01      	subs	r2, #1
    1c9e:	3aff      	subs	r2, #255	@ 0xff
    1ca0:	5099      	str	r1, [r3, r2]
    gpio_set_output(PIN_DEBUG);
    gpio_set_output(PIN_TRANSDUCER_TX_A);
    gpio_set_output(PIN_TRANSDUCER_TX_B);
    gpio_write(PIN_TRANSDUCER_TX_A, false);

    usart0_init();
    1ca2:	f7fe fff5 	bl	c90 <usart0_init>
    adc_init();
    1ca6:	f7ff f9a9 	bl	ffc <adc_init>

    emit_info();
    1caa:	f7ff faff 	bl	12ac <emit_info>
    emit_config();
    1cae:	f7ff fb0f 	bl	12d0 <emit_config>
    1cb2:	e002      	b.n	1cba <main+0x4a>
        service_pending_command();

        if (g_pending_frames > 0u) {
            --g_pending_frames;
            if (g_pending_frames == 0u && g_config.mode != CAPTURE_MODE_CONTINUOUS) {
                emit_done_frames((g_config.mode == CAPTURE_MODE_SINGLE) ? 1u : g_config.nshot);
    1cb4:	2001      	movs	r0, #1
    1cb6:	f7ff fb6b 	bl	1390 <emit_done_frames>
        pump_uart_rx();
    1cba:	f7ff fa8d 	bl	11d8 <pump_uart_rx>
        service_pending_command();
    1cbe:	f7ff ff85 	bl	1bcc <service_pending_command>
        if (!capture_is_active()) {
    1cc2:	f7ff f82d 	bl	d20 <capture_is_active>
    1cc6:	2800      	cmp	r0, #0
    1cc8:	d0f7      	beq.n	1cba <main+0x4a>
        capture_frame();
    1cca:	f7ff fbb9 	bl	1440 <capture_frame>
        emit_current_frame();
    1cce:	f7ff fcfb 	bl	16c8 <emit_current_frame>
        pump_uart_rx();
    1cd2:	f7ff fa81 	bl	11d8 <pump_uart_rx>
        service_pending_command();
    1cd6:	f7ff ff79 	bl	1bcc <service_pending_command>
        if (g_pending_frames > 0u) {
    1cda:	4b0a      	ldr	r3, [pc, #40]	@ (1d04 <main+0x94>)
    1cdc:	681b      	ldr	r3, [r3, #0]
    1cde:	2b00      	cmp	r3, #0
    1ce0:	d0eb      	beq.n	1cba <main+0x4a>
            --g_pending_frames;
    1ce2:	3b01      	subs	r3, #1
    1ce4:	4a07      	ldr	r2, [pc, #28]	@ (1d04 <main+0x94>)
    1ce6:	6013      	str	r3, [r2, #0]
            if (g_pending_frames == 0u && g_config.mode != CAPTURE_MODE_CONTINUOUS) {
    1ce8:	2b00      	cmp	r3, #0
    1cea:	d1e6      	bne.n	1cba <main+0x4a>
    1cec:	4b06      	ldr	r3, [pc, #24]	@ (1d08 <main+0x98>)
    1cee:	781b      	ldrb	r3, [r3, #0]
    1cf0:	2b02      	cmp	r3, #2
    1cf2:	d0e2      	beq.n	1cba <main+0x4a>
                emit_done_frames((g_config.mode == CAPTURE_MODE_SINGLE) ? 1u : g_config.nshot);
    1cf4:	2b00      	cmp	r3, #0
    1cf6:	d0dd      	beq.n	1cb4 <main+0x44>
    1cf8:	4b03      	ldr	r3, [pc, #12]	@ (1d08 <main+0x98>)
    1cfa:	6858      	ldr	r0, [r3, #4]
    1cfc:	e7db      	b.n	1cb6 <main+0x46>
    1cfe:	46c0      	nop			@ (mov r8, r8)
    1d00:	40048000 	.word	0x40048000
    1d04:	100002cc 	.word	0x100002cc
    1d08:	10000004 	.word	0x10000004

00001d0c <CLOCK_GetSystemPLLInClkRate>:
/* get system pll input freq */
static uint32_t CLOCK_GetSystemPLLInClkRate(void)
{
    uint32_t freq = 0U;

    switch ((SYSCON->SYSPLLCLKSEL & SYSCON_SYSPLLCLKSEL_SEL_MASK))
    1d0c:	4b04      	ldr	r3, [pc, #16]	@ (1d20 <CLOCK_GetSystemPLLInClkRate+0x14>)
    1d0e:	6c1a      	ldr	r2, [r3, #64]	@ 0x40
    1d10:	2303      	movs	r3, #3
    1d12:	4013      	ands	r3, r2
    1d14:	2b03      	cmp	r3, #3
    1d16:	d001      	beq.n	1d1c <CLOCK_GetSystemPLLInClkRate+0x10>
    {
        /* source from external clock in */
        case 0x00U:
            freq = CLK_IRC_12MHZ;
    1d18:	4802      	ldr	r0, [pc, #8]	@ (1d24 <CLOCK_GetSystemPLLInClkRate+0x18>)
            freq = CLK_IRC_12MHZ;
            break;
    }

    return freq;
}
    1d1a:	4770      	bx	lr
            freq = EXT_CLK_IN;
    1d1c:	2000      	movs	r0, #0
    return freq;
    1d1e:	e7fc      	b.n	1d1a <CLOCK_GetSystemPLLInClkRate+0xe>
    1d20:	40048000 	.word	0x40048000
    1d24:	00b71b00 	.word	0x00b71b00

00001d28 <Clock_GetPLLFreq>:

/* get system pll output freq*/
static uint32_t Clock_GetPLLFreq(uint32_t PLLReg, uint32_t inputRate)
{
    uint32_t m_val = ((PLLReg & 0x1FU) + 1U);
    1d28:	231f      	movs	r3, #31
    1d2a:	4003      	ands	r3, r0
    1d2c:	3301      	adds	r3, #1

    return (inputRate * m_val);
    1d2e:	4359      	muls	r1, r3
    1d30:	0008      	movs	r0, r1
}
    1d32:	4770      	bx	lr

00001d34 <SystemCoreClockUpdate>:

/* ----------------------------------------------------------------------------
   -- SystemCoreClockUpdate()
   ---------------------------------------------------------------------------- */

void SystemCoreClockUpdate (void) {
    1d34:	b510      	push	{r4, lr}
  uint32_t wdt_osc = 0U;
  uint32_t irc_clk = 12000000U;

  switch ((SYSCON->WDTOSCCTRL >> SYSCON_WDTOSCCTRL_FREQSEL_SHIFT) & 0x0FU) {
    1d36:	4b3b      	ldr	r3, [pc, #236]	@ (1e24 <SystemCoreClockUpdate+0xf0>)
    1d38:	6a5a      	ldr	r2, [r3, #36]	@ 0x24
    1d3a:	0952      	lsrs	r2, r2, #5
    1d3c:	230f      	movs	r3, #15
    1d3e:	4013      	ands	r3, r2
    1d40:	2b0f      	cmp	r3, #15
    1d42:	d803      	bhi.n	1d4c <SystemCoreClockUpdate+0x18>
    1d44:	009b      	lsls	r3, r3, #2
    1d46:	4a38      	ldr	r2, [pc, #224]	@ (1e28 <SystemCoreClockUpdate+0xf4>)
    1d48:	58d3      	ldr	r3, [r2, r3]
    1d4a:	469f      	mov	pc, r3
    1d4c:	2000      	movs	r0, #0
    1d4e:	e000      	b.n	1d52 <SystemCoreClockUpdate+0x1e>
    case 0U:  wdt_osc =       0U; break;
    case 1U:  wdt_osc =  600000U; break;
    case 2U:  wdt_osc = 1050000U; break;
    1d50:	4836      	ldr	r0, [pc, #216]	@ (1e2c <SystemCoreClockUpdate+0xf8>)
    case 13U: wdt_osc = 4200000U; break;
    case 14U: wdt_osc = 4400000U; break;
    case 15U: wdt_osc = 4600000U; break;
    default:  wdt_osc =       0U; break;
  }
  wdt_osc /= (((SYSCON->WDTOSCCTRL & SYSCON_WDTOSCCTRL_DIVSEL_MASK) + 1U) << 1U);
    1d52:	4c34      	ldr	r4, [pc, #208]	@ (1e24 <SystemCoreClockUpdate+0xf0>)
    1d54:	6a63      	ldr	r3, [r4, #36]	@ 0x24
    1d56:	211f      	movs	r1, #31
    1d58:	4019      	ands	r1, r3
    1d5a:	3101      	adds	r1, #1
    1d5c:	0049      	lsls	r1, r1, #1
    1d5e:	f7fe fb8d 	bl	47c <__udivsi3>

  switch (SYSCON->MAINCLKSEL & SYSCON_MAINCLKSEL_SEL_MASK)
    1d62:	6f22      	ldr	r2, [r4, #112]	@ 0x70
    1d64:	2303      	movs	r3, #3
    1d66:	4013      	ands	r3, r2
    1d68:	2b02      	cmp	r3, #2
    1d6a:	d04c      	beq.n	1e06 <SystemCoreClockUpdate+0xd2>
    1d6c:	d82d      	bhi.n	1dca <SystemCoreClockUpdate+0x96>
    1d6e:	2b00      	cmp	r3, #0
    1d70:	d039      	beq.n	1de6 <SystemCoreClockUpdate+0xb2>
    1d72:	2b01      	cmp	r3, #1
    1d74:	d151      	bne.n	1e1a <SystemCoreClockUpdate+0xe6>
  {
    case 0U:                                              /* IRC  */
      SystemCoreClock = irc_clk;
      break;
    case 1U:                                            /* System PLL input */
      switch (SYSCON->SYSPLLCLKSEL & SYSCON_SYSPLLCLKSEL_SEL_MASK) {
    1d76:	4b2b      	ldr	r3, [pc, #172]	@ (1e24 <SystemCoreClockUpdate+0xf0>)
    1d78:	6c1a      	ldr	r2, [r3, #64]	@ 0x40
    1d7a:	2303      	movs	r3, #3
    1d7c:	4013      	ands	r3, r2
    1d7e:	2b01      	cmp	r3, #1
    1d80:	d035      	beq.n	1dee <SystemCoreClockUpdate+0xba>
    1d82:	2b03      	cmp	r3, #3
    1d84:	d037      	beq.n	1df6 <SystemCoreClockUpdate+0xc2>
    1d86:	2b00      	cmp	r3, #0
    1d88:	d139      	bne.n	1dfe <SystemCoreClockUpdate+0xca>
        case 0U:                                         /* IRC */
          SystemCoreClock = irc_clk;
    1d8a:	4b29      	ldr	r3, [pc, #164]	@ (1e30 <SystemCoreClockUpdate+0xfc>)
    1d8c:	4a29      	ldr	r2, [pc, #164]	@ (1e34 <SystemCoreClockUpdate+0x100>)
    1d8e:	601a      	str	r2, [r3, #0]
          break;
    1d90:	e03b      	b.n	1e0a <SystemCoreClockUpdate+0xd6>
    case 3U:  wdt_osc = 1400000U; break;
    1d92:	4829      	ldr	r0, [pc, #164]	@ (1e38 <SystemCoreClockUpdate+0x104>)
    1d94:	e7dd      	b.n	1d52 <SystemCoreClockUpdate+0x1e>
    case 4U:  wdt_osc = 1750000U; break;
    1d96:	4829      	ldr	r0, [pc, #164]	@ (1e3c <SystemCoreClockUpdate+0x108>)
    1d98:	e7db      	b.n	1d52 <SystemCoreClockUpdate+0x1e>
    case 5U:  wdt_osc = 2100000U; break;
    1d9a:	4829      	ldr	r0, [pc, #164]	@ (1e40 <SystemCoreClockUpdate+0x10c>)
    1d9c:	e7d9      	b.n	1d52 <SystemCoreClockUpdate+0x1e>
    case 6U:  wdt_osc = 2400000U; break;
    1d9e:	4829      	ldr	r0, [pc, #164]	@ (1e44 <SystemCoreClockUpdate+0x110>)
    1da0:	e7d7      	b.n	1d52 <SystemCoreClockUpdate+0x1e>
    case 7U:  wdt_osc = 2700000U; break;
    1da2:	4829      	ldr	r0, [pc, #164]	@ (1e48 <SystemCoreClockUpdate+0x114>)
    1da4:	e7d5      	b.n	1d52 <SystemCoreClockUpdate+0x1e>
    case 8U:  wdt_osc = 3000000U; break;
    1da6:	4829      	ldr	r0, [pc, #164]	@ (1e4c <SystemCoreClockUpdate+0x118>)
    1da8:	e7d3      	b.n	1d52 <SystemCoreClockUpdate+0x1e>
    case 9U:  wdt_osc = 3250000U; break;
    1daa:	4829      	ldr	r0, [pc, #164]	@ (1e50 <SystemCoreClockUpdate+0x11c>)
    1dac:	e7d1      	b.n	1d52 <SystemCoreClockUpdate+0x1e>
    case 10U: wdt_osc = 3500000U; break;
    1dae:	4829      	ldr	r0, [pc, #164]	@ (1e54 <SystemCoreClockUpdate+0x120>)
    1db0:	e7cf      	b.n	1d52 <SystemCoreClockUpdate+0x1e>
    case 11U: wdt_osc = 3750000U; break;
    1db2:	4829      	ldr	r0, [pc, #164]	@ (1e58 <SystemCoreClockUpdate+0x124>)
    1db4:	e7cd      	b.n	1d52 <SystemCoreClockUpdate+0x1e>
    case 12U: wdt_osc = 4000000U; break;
    1db6:	4829      	ldr	r0, [pc, #164]	@ (1e5c <SystemCoreClockUpdate+0x128>)
    1db8:	e7cb      	b.n	1d52 <SystemCoreClockUpdate+0x1e>
    case 13U: wdt_osc = 4200000U; break;
    1dba:	4829      	ldr	r0, [pc, #164]	@ (1e60 <SystemCoreClockUpdate+0x12c>)
    1dbc:	e7c9      	b.n	1d52 <SystemCoreClockUpdate+0x1e>
    case 14U: wdt_osc = 4400000U; break;
    1dbe:	4829      	ldr	r0, [pc, #164]	@ (1e64 <SystemCoreClockUpdate+0x130>)
    1dc0:	e7c7      	b.n	1d52 <SystemCoreClockUpdate+0x1e>
    case 15U: wdt_osc = 4600000U; break;
    1dc2:	4829      	ldr	r0, [pc, #164]	@ (1e68 <SystemCoreClockUpdate+0x134>)
    1dc4:	e7c5      	b.n	1d52 <SystemCoreClockUpdate+0x1e>
    case 1U:  wdt_osc =  600000U; break;
    1dc6:	4829      	ldr	r0, [pc, #164]	@ (1e6c <SystemCoreClockUpdate+0x138>)
    1dc8:	e7c3      	b.n	1d52 <SystemCoreClockUpdate+0x1e>
  switch (SYSCON->MAINCLKSEL & SYSCON_MAINCLKSEL_SEL_MASK)
    1dca:	2b03      	cmp	r3, #3
    1dcc:	d125      	bne.n	1e1a <SystemCoreClockUpdate+0xe6>
      break;
    case 2U:                                              /* watchdog oscillator */
      SystemCoreClock = wdt_osc;
      break;
    case 3U:                                              /* System PLL  */
      SystemCoreClock = Clock_GetPLLFreq((SYSCON->SYSPLLCTRL & SYSCON_SYSPLLCTRL_MSEL_MASK), CLOCK_GetSystemPLLInClkRate());
    1dce:	4b15      	ldr	r3, [pc, #84]	@ (1e24 <SystemCoreClockUpdate+0xf0>)
    1dd0:	689c      	ldr	r4, [r3, #8]
    1dd2:	f7ff ff9b 	bl	1d0c <CLOCK_GetSystemPLLInClkRate>
    1dd6:	0001      	movs	r1, r0
    1dd8:	201f      	movs	r0, #31
    1dda:	4020      	ands	r0, r4
    1ddc:	f7ff ffa4 	bl	1d28 <Clock_GetPLLFreq>
    1de0:	4b13      	ldr	r3, [pc, #76]	@ (1e30 <SystemCoreClockUpdate+0xfc>)
    1de2:	6018      	str	r0, [r3, #0]
      break;
    1de4:	e011      	b.n	1e0a <SystemCoreClockUpdate+0xd6>
      SystemCoreClock = irc_clk;
    1de6:	4b12      	ldr	r3, [pc, #72]	@ (1e30 <SystemCoreClockUpdate+0xfc>)
    1de8:	4a12      	ldr	r2, [pc, #72]	@ (1e34 <SystemCoreClockUpdate+0x100>)
    1dea:	601a      	str	r2, [r3, #0]
      break;
    1dec:	e00d      	b.n	1e0a <SystemCoreClockUpdate+0xd6>
          SystemCoreClock = CLK_OSC_IN;
    1dee:	4b10      	ldr	r3, [pc, #64]	@ (1e30 <SystemCoreClockUpdate+0xfc>)
    1df0:	4a10      	ldr	r2, [pc, #64]	@ (1e34 <SystemCoreClockUpdate+0x100>)
    1df2:	601a      	str	r2, [r3, #0]
          break;
    1df4:	e009      	b.n	1e0a <SystemCoreClockUpdate+0xd6>
          SystemCoreClock = EXT_CLK_IN;
    1df6:	4b0e      	ldr	r3, [pc, #56]	@ (1e30 <SystemCoreClockUpdate+0xfc>)
    1df8:	2200      	movs	r2, #0
    1dfa:	601a      	str	r2, [r3, #0]
          break;
    1dfc:	e005      	b.n	1e0a <SystemCoreClockUpdate+0xd6>
          SystemCoreClock = irc_clk;                    /* default is IRC */
    1dfe:	4b0c      	ldr	r3, [pc, #48]	@ (1e30 <SystemCoreClockUpdate+0xfc>)
    1e00:	4a0c      	ldr	r2, [pc, #48]	@ (1e34 <SystemCoreClockUpdate+0x100>)
    1e02:	601a      	str	r2, [r3, #0]
          break;
    1e04:	e001      	b.n	1e0a <SystemCoreClockUpdate+0xd6>
      SystemCoreClock = wdt_osc;
    1e06:	4b0a      	ldr	r3, [pc, #40]	@ (1e30 <SystemCoreClockUpdate+0xfc>)
    1e08:	6018      	str	r0, [r3, #0]
    default:
      SystemCoreClock = 0U;
      break;
  }

  SystemCoreClock /= SYSCON->SYSAHBCLKDIV;
    1e0a:	4b06      	ldr	r3, [pc, #24]	@ (1e24 <SystemCoreClockUpdate+0xf0>)
    1e0c:	6f99      	ldr	r1, [r3, #120]	@ 0x78
    1e0e:	4c08      	ldr	r4, [pc, #32]	@ (1e30 <SystemCoreClockUpdate+0xfc>)
    1e10:	6820      	ldr	r0, [r4, #0]
    1e12:	f7fe fb33 	bl	47c <__udivsi3>
    1e16:	6020      	str	r0, [r4, #0]
}
    1e18:	bd10      	pop	{r4, pc}
      SystemCoreClock = 0U;
    1e1a:	4b05      	ldr	r3, [pc, #20]	@ (1e30 <SystemCoreClockUpdate+0xfc>)
    1e1c:	2200      	movs	r2, #0
    1e1e:	601a      	str	r2, [r3, #0]
      break;
    1e20:	e7f3      	b.n	1e0a <SystemCoreClockUpdate+0xd6>
    1e22:	46c0      	nop			@ (mov r8, r8)
    1e24:	40048000 	.word	0x40048000
    1e28:	000020c4 	.word	0x000020c4
    1e2c:	00100590 	.word	0x00100590
    1e30:	10000020 	.word	0x10000020
    1e34:	00b71b00 	.word	0x00b71b00
    1e38:	00155cc0 	.word	0x00155cc0
    1e3c:	001ab3f0 	.word	0x001ab3f0
    1e40:	00200b20 	.word	0x00200b20
    1e44:	00249f00 	.word	0x00249f00
    1e48:	002932e0 	.word	0x002932e0
    1e4c:	002dc6c0 	.word	0x002dc6c0
    1e50:	00319750 	.word	0x00319750
    1e54:	003567e0 	.word	0x003567e0
    1e58:	00393870 	.word	0x00393870
    1e5c:	003d0900 	.word	0x003d0900
    1e60:	00401640 	.word	0x00401640
    1e64:	00432380 	.word	0x00432380
    1e68:	004630c0 	.word	0x004630c0
    1e6c:	000927c0 	.word	0x000927c0

00001e70 <SystemInitHook>:
   -- SystemInitHook()
   ---------------------------------------------------------------------------- */

__attribute__ ((weak)) void SystemInitHook (void) {
  /* Void implementation of the weak function. */
}
    1e70:	4770      	bx	lr
	...

00001e74 <SystemInit>:
void SystemInit (void) {
    1e74:	b510      	push	{r4, lr}
    SCB->VTOR = (uint32_t) &__Vectors;
    1e76:	4b04      	ldr	r3, [pc, #16]	@ (1e88 <SystemInit+0x14>)
    1e78:	4a04      	ldr	r2, [pc, #16]	@ (1e8c <SystemInit+0x18>)
    1e7a:	6093      	str	r3, [r2, #8]
    SystemCoreClock = DEFAULT_SYSTEM_CLOCK;
    1e7c:	4b04      	ldr	r3, [pc, #16]	@ (1e90 <SystemInit+0x1c>)
    1e7e:	4a05      	ldr	r2, [pc, #20]	@ (1e94 <SystemInit+0x20>)
    1e80:	601a      	str	r2, [r3, #0]
  SystemInitHook();
    1e82:	f7ff fff5 	bl	1e70 <SystemInitHook>
}
    1e86:	bd10      	pop	{r4, pc}
    1e88:	00000000 	.word	0x00000000
    1e8c:	e000ed00 	.word	0xe000ed00
    1e90:	10000020 	.word	0x10000020
    1e94:	00b71b00 	.word	0x00b71b00
    1e98:	474e4953 	.word	0x474e4953
    1e9c:	0000454c 	.word	0x0000454c
    1ea0:	4f48534e 	.word	0x4f48534e
    1ea4:	00000054 	.word	0x00000054
    1ea8:	544e4f43 	.word	0x544e4f43
    1eac:	4f554e49 	.word	0x4f554e49
    1eb0:	00005355 	.word	0x00005355
    1eb4:	4e4b4e55 	.word	0x4e4b4e55
    1eb8:	004e574f 	.word	0x004e574f
    1ebc:	504d4f43 	.word	0x504d4f43
    1ec0:	00544341 	.word	0x00544341
    1ec4:	54584554 	.word	0x54584554
    1ec8:	00000000 	.word	0x00000000
    1ecc:	004e4942 	.word	0x004e4942
    1ed0:	00564e45 	.word	0x00564e45
    1ed4:	464e492b 	.word	0x464e492b
    1ed8:	70203a4f 	.word	0x70203a4f
    1edc:	6f746f72 	.word	0x6f746f72
    1ee0:	0000003d 	.word	0x0000003d
    1ee4:	7261742c 	.word	0x7261742c
    1ee8:	3d746567 	.word	0x3d746567
    1eec:	3843504c 	.word	0x3843504c
    1ef0:	662c3432 	.word	0x662c3432
    1ef4:	6c753d77 	.word	0x6c753d77
    1ef8:	73617274 	.word	0x73617274
    1efc:	63696e6f 	.word	0x63696e6f
    1f00:	6e61725f 	.word	0x6e61725f
    1f04:	00726567 	.word	0x00726567
    1f08:	4746432b 	.word	0x4746432b
    1f0c:	6f6d203a 	.word	0x6f6d203a
    1f10:	003d6564 	.word	0x003d6564
    1f14:	68736e2c 	.word	0x68736e2c
    1f18:	003d746f 	.word	0x003d746f
    1f1c:	746d662c 	.word	0x746d662c
    1f20:	0000003d 	.word	0x0000003d
    1f24:	6678742c 	.word	0x6678742c
    1f28:	3d716572 	.word	0x3d716572
    1f2c:	00000000 	.word	0x00000000
    1f30:	6378742c 	.word	0x6378742c
    1f34:	656c6379 	.word	0x656c6379
    1f38:	00003d73 	.word	0x00003d73
    1f3c:	6172732c 	.word	0x6172732c
    1f40:	003d6574 	.word	0x003d6574
    1f44:	6d61732c 	.word	0x6d61732c
    1f48:	73656c70 	.word	0x73656c70
    1f4c:	0000003d 	.word	0x0000003d
    1f50:	766e652c 	.word	0x766e652c
    1f54:	706d6173 	.word	0x706d6173
    1f58:	3d73656c 	.word	0x3d73656c
    1f5c:	00000000 	.word	0x00000000
    1f60:	4e4f442b 	.word	0x4e4f442b
    1f64:	73203a45 	.word	0x73203a45
    1f68:	70706f74 	.word	0x70706f74
    1f6c:	00006465 	.word	0x00006465
    1f70:	00004b4f 	.word	0x00004b4f
    1f74:	4e4f442b 	.word	0x4e4f442b
    1f78:	66203a45 	.word	0x66203a45
    1f7c:	656d6172 	.word	0x656d6172
    1f80:	00003d73 	.word	0x00003d73
    1f84:	4f525245 	.word	0x4f525245
    1f88:	00000052 	.word	0x00000052
    1f8c:	0000203a 	.word	0x0000203a
    1f90:	65732054 	.word	0x65732054
    1f94:	00003d71 	.word	0x00003d71
    1f98:	756f6320 	.word	0x756f6320
    1f9c:	003d746e 	.word	0x003d746e
    1fa0:	4d524f46 	.word	0x4d524f46
    1fa4:	00005441 	.word	0x00005441
    1fa8:	00495441 	.word	0x00495441
    1fac:	46435441 	.word	0x46435441
    1fb0:	00003f47 	.word	0x00003f47
    1fb4:	4f4d5441 	.word	0x4f4d5441
    1fb8:	003f4544 	.word	0x003f4544
    1fbc:	45444f4d 	.word	0x45444f4d
    1fc0:	00000000 	.word	0x00000000
    1fc4:	4f4d5441 	.word	0x4f4d5441
    1fc8:	003d4544 	.word	0x003d4544
    1fcc:	59535542 	.word	0x59535542
    1fd0:	00000000 	.word	0x00000000
    1fd4:	41444142 	.word	0x41444142
    1fd8:	00004752 	.word	0x00004752
    1fdc:	534e5441 	.word	0x534e5441
    1fe0:	3f544f48 	.word	0x3f544f48
    1fe4:	00000000 	.word	0x00000000
    1fe8:	534e5441 	.word	0x534e5441
    1fec:	3d544f48 	.word	0x3d544f48
    1ff0:	00000000 	.word	0x00000000
    1ff4:	4d465441 	.word	0x4d465441
    1ff8:	00003f54 	.word	0x00003f54
    1ffc:	00544d46 	.word	0x00544d46
    2000:	4d465441 	.word	0x4d465441
    2004:	00003d54 	.word	0x00003d54
    2008:	58545441 	.word	0x58545441
    200c:	51455246 	.word	0x51455246
    2010:	0000003f 	.word	0x0000003f
    2014:	52465854 	.word	0x52465854
    2018:	00005145 	.word	0x00005145
    201c:	58545441 	.word	0x58545441
    2020:	51455246 	.word	0x51455246
    2024:	0000003d 	.word	0x0000003d
    2028:	474e4152 	.word	0x474e4152
    202c:	00000045 	.word	0x00000045
    2030:	58545441 	.word	0x58545441
    2034:	4c435943 	.word	0x4c435943
    2038:	003f5345 	.word	0x003f5345
    203c:	59435854 	.word	0x59435854
    2040:	53454c43 	.word	0x53454c43
    2044:	00000000 	.word	0x00000000
    2048:	58545441 	.word	0x58545441
    204c:	4c435943 	.word	0x4c435943
    2050:	003d5345 	.word	0x003d5345
    2054:	52535441 	.word	0x52535441
    2058:	3f455441 	.word	0x3f455441
    205c:	00000000 	.word	0x00000000
    2060:	54415253 	.word	0x54415253
    2064:	00000045 	.word	0x00000045
    2068:	52535441 	.word	0x52535441
    206c:	3d455441 	.word	0x3d455441
    2070:	00000000 	.word	0x00000000
    2074:	41535441 	.word	0x41535441
    2078:	454c504d 	.word	0x454c504d
    207c:	00003f53 	.word	0x00003f53
    2080:	504d4153 	.word	0x504d4153
    2084:	0053454c 	.word	0x0053454c
    2088:	4f475441 	.word	0x4f475441
    208c:	00000000 	.word	0x00000000
    2090:	54535441 	.word	0x54535441
    2094:	0000504f 	.word	0x0000504f
    2098:	45445441 	.word	0x45445441
    209c:	4c554146 	.word	0x4c554146
    20a0:	00000054 	.word	0x00000054
    20a4:	4c4f4f54 	.word	0x4c4f4f54
    20a8:	00474e4f 	.word	0x00474e4f

000020ac <g_default_config>:
    20ac:	00000002 00000001 00009c40 00000001     ........@.......
    20bc:	0007a120 00000c00 00001d4c 00001dc6      .......L.......
    20cc:	00001d50 00001d92 00001d96 00001d9a     P...............
    20dc:	00001d9e 00001da2 00001da6 00001daa     ................
    20ec:	00001dae 00001db2 00001db6 00001dba     ................
    20fc:	00001dbe 00001dc2                       ........
