
sd_write_bench.elf:     file format elf32-littlearm


Disassembly of section .text:

080000ec <delay_ms>:
    g_ms_ticks++;
}

static void delay_ms(uint32_t delay_ms)
{
    uint32_t start = g_ms_ticks;
 80000ec:	4b03      	ldr	r3, [pc, #12]	@ (80000fc <delay_ms+0x10>)
 80000ee:	681a      	ldr	r2, [r3, #0]
    while ((uint32_t)(g_ms_ticks - start) < delay_ms) {
 80000f0:	4b02      	ldr	r3, [pc, #8]	@ (80000fc <delay_ms+0x10>)
 80000f2:	681b      	ldr	r3, [r3, #0]
 80000f4:	1a9b      	subs	r3, r3, r2
 80000f6:	4283      	cmp	r3, r0
 80000f8:	d3fa      	bcc.n	80000f0 <delay_ms+0x4>
        /* Busy wait. */
    }
}
 80000fa:	4770      	bx	lr
 80000fc:	20001010 	.word	0x20001010

08000100 <usart1_putc>:

static void usart1_putc(char ch)
{
    while ((USART1->SR & USART_SR_TXE) == 0u) {
 8000100:	4b03      	ldr	r3, [pc, #12]	@ (8000110 <usart1_putc+0x10>)
 8000102:	681b      	ldr	r3, [r3, #0]
 8000104:	f013 0f80 	tst.w	r3, #128	@ 0x80
 8000108:	d0fa      	beq.n	8000100 <usart1_putc>
        /* Wait for TX space. */
    }
    USART1->DR = (uint16_t)(uint8_t)ch;
 800010a:	4b01      	ldr	r3, [pc, #4]	@ (8000110 <usart1_putc+0x10>)
 800010c:	6058      	str	r0, [r3, #4]
}
 800010e:	4770      	bx	lr
 8000110:	40013800 	.word	0x40013800

08000114 <usart1_puts>:

static void usart1_puts(const char *text)
{
 8000114:	b510      	push	{r4, lr}
 8000116:	4604      	mov	r4, r0
    while (*text != '\0') {
 8000118:	e002      	b.n	8000120 <usart1_puts+0xc>
        usart1_putc(*text++);
 800011a:	3401      	adds	r4, #1
 800011c:	f7ff fff0 	bl	8000100 <usart1_putc>
    while (*text != '\0') {
 8000120:	7820      	ldrb	r0, [r4, #0]
 8000122:	2800      	cmp	r0, #0
 8000124:	d1f9      	bne.n	800011a <usart1_puts+0x6>
    }
}
 8000126:	bd10      	pop	{r4, pc}

08000128 <usart1_put_hex8>:

static void usart1_put_hex8(uint8_t value)
{
 8000128:	b538      	push	{r3, r4, r5, lr}
 800012a:	4604      	mov	r4, r0
    static const char hex[] = "0123456789ABCDEF";
    usart1_putc(hex[(value >> 4) & 0x0Fu]);
 800012c:	0903      	lsrs	r3, r0, #4
 800012e:	4d05      	ldr	r5, [pc, #20]	@ (8000144 <usart1_put_hex8+0x1c>)
 8000130:	5ce8      	ldrb	r0, [r5, r3]
 8000132:	f7ff ffe5 	bl	8000100 <usart1_putc>
    usart1_putc(hex[value & 0x0Fu]);
 8000136:	f004 040f 	and.w	r4, r4, #15
 800013a:	5d28      	ldrb	r0, [r5, r4]
 800013c:	f7ff ffe0 	bl	8000100 <usart1_putc>
}
 8000140:	bd38      	pop	{r3, r4, r5, pc}
 8000142:	bf00      	nop
 8000144:	080028c0 	.word	0x080028c0

08000148 <usart1_put_hex16>:

static void usart1_put_hex16(uint16_t value)
{
 8000148:	b510      	push	{r4, lr}
 800014a:	4604      	mov	r4, r0
    usart1_put_hex8((uint8_t)(value >> 8));
 800014c:	0a00      	lsrs	r0, r0, #8
 800014e:	f7ff ffeb 	bl	8000128 <usart1_put_hex8>
    usart1_put_hex8((uint8_t)value);
 8000152:	b2e0      	uxtb	r0, r4
 8000154:	f7ff ffe8 	bl	8000128 <usart1_put_hex8>
}
 8000158:	bd10      	pop	{r4, pc}

0800015a <usart1_put_hex32>:

static void usart1_put_hex32(uint32_t value)
{
 800015a:	b510      	push	{r4, lr}
 800015c:	4604      	mov	r4, r0
    usart1_put_hex16((uint16_t)(value >> 16));
 800015e:	0c00      	lsrs	r0, r0, #16
 8000160:	f7ff fff2 	bl	8000148 <usart1_put_hex16>
    usart1_put_hex16((uint16_t)value);
 8000164:	b2a0      	uxth	r0, r4
 8000166:	f7ff ffef 	bl	8000148 <usart1_put_hex16>
}
 800016a:	bd10      	pop	{r4, pc}

0800016c <usart1_put_dec_u32>:

static void usart1_put_dec_u32(uint32_t value)
{
 800016c:	b510      	push	{r4, lr}
 800016e:	b084      	sub	sp, #16
    char buffer[10];
    uint32_t i = 0u;

    if (value == 0u) {
 8000170:	b110      	cbz	r0, 8000178 <usart1_put_dec_u32+0xc>
 8000172:	4602      	mov	r2, r0
    uint32_t i = 0u;
 8000174:	2400      	movs	r4, #0
 8000176:	e014      	b.n	80001a2 <usart1_put_dec_u32+0x36>
        usart1_putc('0');
 8000178:	2030      	movs	r0, #48	@ 0x30
 800017a:	f7ff ffc1 	bl	8000100 <usart1_putc>
        return;
 800017e:	e01d      	b.n	80001bc <usart1_put_dec_u32+0x50>
    }

    while (value != 0u) {
        buffer[i++] = (char)('0' + (value % 10u));
 8000180:	4b0f      	ldr	r3, [pc, #60]	@ (80001c0 <usart1_put_dec_u32+0x54>)
 8000182:	fba3 1302 	umull	r1, r3, r3, r2
 8000186:	08db      	lsrs	r3, r3, #3
 8000188:	4619      	mov	r1, r3
 800018a:	eb03 0383 	add.w	r3, r3, r3, lsl #2
 800018e:	eba2 0343 	sub.w	r3, r2, r3, lsl #1
 8000192:	3330      	adds	r3, #48	@ 0x30
 8000194:	f104 0210 	add.w	r2, r4, #16
 8000198:	446a      	add	r2, sp
 800019a:	f802 3c0c 	strb.w	r3, [r2, #-12]
        value /= 10u;
 800019e:	460a      	mov	r2, r1
        buffer[i++] = (char)('0' + (value % 10u));
 80001a0:	3401      	adds	r4, #1
    while (value != 0u) {
 80001a2:	2a00      	cmp	r2, #0
 80001a4:	d1ec      	bne.n	8000180 <usart1_put_dec_u32+0x14>
 80001a6:	e007      	b.n	80001b8 <usart1_put_dec_u32+0x4c>
    }

    while (i > 0u) {
        usart1_putc(buffer[--i]);
 80001a8:	3c01      	subs	r4, #1
 80001aa:	f104 0310 	add.w	r3, r4, #16
 80001ae:	446b      	add	r3, sp
 80001b0:	f813 0c0c 	ldrb.w	r0, [r3, #-12]
 80001b4:	f7ff ffa4 	bl	8000100 <usart1_putc>
    while (i > 0u) {
 80001b8:	2c00      	cmp	r4, #0
 80001ba:	d1f5      	bne.n	80001a8 <usart1_put_dec_u32+0x3c>
    }
}
 80001bc:	b004      	add	sp, #16
 80001be:	bd10      	pop	{r4, pc}
 80001c0:	cccccccd 	.word	0xcccccccd

080001c4 <usart1_put_dec_tenths_u32>:

static void usart1_put_dec_tenths_u32(uint32_t value_x10)
{
 80001c4:	b538      	push	{r3, r4, r5, lr}
 80001c6:	4605      	mov	r5, r0
    usart1_put_dec_u32(value_x10 / 10u);
 80001c8:	4c09      	ldr	r4, [pc, #36]	@ (80001f0 <usart1_put_dec_tenths_u32+0x2c>)
 80001ca:	fba4 3400 	umull	r3, r4, r4, r0
 80001ce:	08e4      	lsrs	r4, r4, #3
 80001d0:	4620      	mov	r0, r4
 80001d2:	f7ff ffcb 	bl	800016c <usart1_put_dec_u32>
    usart1_putc('.');
 80001d6:	202e      	movs	r0, #46	@ 0x2e
 80001d8:	f7ff ff92 	bl	8000100 <usart1_putc>
    usart1_putc((char)('0' + (value_x10 % 10u)));
 80001dc:	eb04 0484 	add.w	r4, r4, r4, lsl #2
 80001e0:	eba5 0044 	sub.w	r0, r5, r4, lsl #1
 80001e4:	3030      	adds	r0, #48	@ 0x30
 80001e6:	b2c0      	uxtb	r0, r0
 80001e8:	f7ff ff8a 	bl	8000100 <usart1_putc>
}
 80001ec:	bd38      	pop	{r3, r4, r5, pc}
 80001ee:	bf00      	nop
 80001f0:	cccccccd 	.word	0xcccccccd

080001f4 <usart1_init>:

static void usart1_init(void)
{
    RCC->APB2ENR |= RCC_APB2ENR_AFIOEN | RCC_APB2ENR_IOPAEN | RCC_APB2ENR_USART1EN;
 80001f4:	4a12      	ldr	r2, [pc, #72]	@ (8000240 <usart1_init+0x4c>)
 80001f6:	6993      	ldr	r3, [r2, #24]
 80001f8:	f443 4380 	orr.w	r3, r3, #16384	@ 0x4000
 80001fc:	f043 0305 	orr.w	r3, r3, #5
 8000200:	6193      	str	r3, [r2, #24]
    AFIO->MAPR &= ~AFIO_MAPR_USART1_REMAP;
 8000202:	f5a2 3288 	sub.w	r2, r2, #69632	@ 0x11000
 8000206:	6853      	ldr	r3, [r2, #4]
 8000208:	f023 0304 	bic.w	r3, r3, #4
 800020c:	6053      	str	r3, [r2, #4]

    GPIOA->CRH &= ~(GPIO_CRH_MODE9 | GPIO_CRH_CNF9 | GPIO_CRH_MODE10 | GPIO_CRH_CNF10);
 800020e:	4b0d      	ldr	r3, [pc, #52]	@ (8000244 <usart1_init+0x50>)
 8000210:	685a      	ldr	r2, [r3, #4]
 8000212:	f422 627f 	bic.w	r2, r2, #4080	@ 0xff0
 8000216:	605a      	str	r2, [r3, #4]
    GPIOA->CRH |= GPIO_CRH_MODE9 | GPIO_CRH_CNF9_1 | GPIO_CRH_CNF10_0;
 8000218:	685a      	ldr	r2, [r3, #4]
 800021a:	f442 6296 	orr.w	r2, r2, #1200	@ 0x4b0
 800021e:	605a      	str	r2, [r3, #4]

    USART1->CR1 = 0u;
 8000220:	4a09      	ldr	r2, [pc, #36]	@ (8000248 <usart1_init+0x54>)
 8000222:	2300      	movs	r3, #0
 8000224:	60d3      	str	r3, [r2, #12]
    USART1->BRR = (SystemCoreClock + (UART_BAUD / 2u)) / UART_BAUD;
 8000226:	4b09      	ldr	r3, [pc, #36]	@ (800024c <usart1_init+0x58>)
 8000228:	681b      	ldr	r3, [r3, #0]
 800022a:	f503 43e1 	add.w	r3, r3, #28800	@ 0x7080
 800022e:	4908      	ldr	r1, [pc, #32]	@ (8000250 <usart1_init+0x5c>)
 8000230:	fba1 1303 	umull	r1, r3, r1, r3
 8000234:	0bdb      	lsrs	r3, r3, #15
 8000236:	6093      	str	r3, [r2, #8]
    USART1->CR1 = USART_CR1_UE | USART_CR1_TE | USART_CR1_RE;
 8000238:	f242 030c 	movw	r3, #8204	@ 0x200c
 800023c:	60d3      	str	r3, [r2, #12]
}
 800023e:	4770      	bx	lr
 8000240:	40021000 	.word	0x40021000
 8000244:	40010800 	.word	0x40010800
 8000248:	40013800 	.word	0x40013800
 800024c:	20000004 	.word	0x20000004
 8000250:	91a2b3c5 	.word	0x91a2b3c5

08000254 <led_init>:

static void led_init(void)
{
    RCC->APB2ENR |= RCC_APB2ENR_IOPCEN;
 8000254:	4a08      	ldr	r2, [pc, #32]	@ (8000278 <led_init+0x24>)
 8000256:	6993      	ldr	r3, [r2, #24]
 8000258:	f043 0310 	orr.w	r3, r3, #16
 800025c:	6193      	str	r3, [r2, #24]
    GPIOC->CRH &= ~(GPIO_CRH_MODE13 | GPIO_CRH_CNF13);
 800025e:	4b07      	ldr	r3, [pc, #28]	@ (800027c <led_init+0x28>)
 8000260:	685a      	ldr	r2, [r3, #4]
 8000262:	f422 0270 	bic.w	r2, r2, #15728640	@ 0xf00000
 8000266:	605a      	str	r2, [r3, #4]
    GPIOC->CRH |= GPIO_CRH_MODE13_1;
 8000268:	685a      	ldr	r2, [r3, #4]
 800026a:	f442 1200 	orr.w	r2, r2, #2097152	@ 0x200000
 800026e:	605a      	str	r2, [r3, #4]
    GPIOC->BSRR = GPIO_BSRR_BS13;
 8000270:	f44f 5200 	mov.w	r2, #8192	@ 0x2000
 8000274:	611a      	str	r2, [r3, #16]
}
 8000276:	4770      	bx	lr
 8000278:	40021000 	.word	0x40021000
 800027c:	40011000 	.word	0x40011000

08000280 <led_set>:

static void led_set(bool on)
{
    if (on) {
 8000280:	b120      	cbz	r0, 800028c <led_set+0xc>
        GPIOC->BRR = GPIO_BRR_BR13;
 8000282:	4b05      	ldr	r3, [pc, #20]	@ (8000298 <led_set+0x18>)
 8000284:	f44f 5200 	mov.w	r2, #8192	@ 0x2000
 8000288:	615a      	str	r2, [r3, #20]
 800028a:	4770      	bx	lr
    } else {
        GPIOC->BSRR = GPIO_BSRR_BS13;
 800028c:	4b02      	ldr	r3, [pc, #8]	@ (8000298 <led_set+0x18>)
 800028e:	f44f 5200 	mov.w	r2, #8192	@ 0x2000
 8000292:	611a      	str	r2, [r3, #16]
    }
}
 8000294:	4770      	bx	lr
 8000296:	bf00      	nop
 8000298:	40011000 	.word	0x40011000

0800029c <sd_spi_set_prescaler>:
    SystemCoreClockUpdate();
}

static void sd_spi_set_prescaler(uint32_t br)
{
    SPI1->CR1 &= ~SPI_CR1_SPE;
 800029c:	4b07      	ldr	r3, [pc, #28]	@ (80002bc <sd_spi_set_prescaler+0x20>)
 800029e:	681a      	ldr	r2, [r3, #0]
 80002a0:	f022 0240 	bic.w	r2, r2, #64	@ 0x40
 80002a4:	601a      	str	r2, [r3, #0]
    SPI1->CR1 = (SPI1->CR1 & ~SPI_CR1_BR) | br;
 80002a6:	681a      	ldr	r2, [r3, #0]
 80002a8:	f022 0238 	bic.w	r2, r2, #56	@ 0x38
 80002ac:	4302      	orrs	r2, r0
 80002ae:	601a      	str	r2, [r3, #0]
    SPI1->CR1 |= SPI_CR1_SPE;
 80002b0:	681a      	ldr	r2, [r3, #0]
 80002b2:	f042 0240 	orr.w	r2, r2, #64	@ 0x40
 80002b6:	601a      	str	r2, [r3, #0]
}
 80002b8:	4770      	bx	lr
 80002ba:	bf00      	nop
 80002bc:	40013000 	.word	0x40013000

080002c0 <sd_spi_init>:

static void sd_spi_init(void)
{
    RCC->APB2ENR |= RCC_APB2ENR_AFIOEN | RCC_APB2ENR_IOPAEN | RCC_APB2ENR_SPI1EN;
 80002c0:	4a12      	ldr	r2, [pc, #72]	@ (800030c <sd_spi_init+0x4c>)
 80002c2:	6993      	ldr	r3, [r2, #24]
 80002c4:	f443 5380 	orr.w	r3, r3, #4096	@ 0x1000
 80002c8:	f043 0305 	orr.w	r3, r3, #5
 80002cc:	6193      	str	r3, [r2, #24]
    AFIO->MAPR &= ~AFIO_MAPR_SPI1_REMAP;
 80002ce:	f5a2 3288 	sub.w	r2, r2, #69632	@ 0x11000
 80002d2:	6853      	ldr	r3, [r2, #4]
 80002d4:	f023 0301 	bic.w	r3, r3, #1
 80002d8:	6053      	str	r3, [r2, #4]

    GPIOA->CRL &= ~(GPIO_CRL_MODE4 | GPIO_CRL_CNF4 |
 80002da:	4b0d      	ldr	r3, [pc, #52]	@ (8000310 <sd_spi_init+0x50>)
 80002dc:	681a      	ldr	r2, [r3, #0]
 80002de:	b292      	uxth	r2, r2
 80002e0:	601a      	str	r2, [r3, #0]
                    GPIO_CRL_MODE5 | GPIO_CRL_CNF5 |
                    GPIO_CRL_MODE6 | GPIO_CRL_CNF6 |
                    GPIO_CRL_MODE7 | GPIO_CRL_CNF7);
    GPIOA->CRL |= GPIO_CRL_MODE4_0 |
 80002e2:	681a      	ldr	r2, [r3, #0]
 80002e4:	f042 4234 	orr.w	r2, r2, #3019898880	@ 0xb4000000
 80002e8:	f442 0231 	orr.w	r2, r2, #11599872	@ 0xb10000
 80002ec:	601a      	str	r2, [r3, #0]
                  GPIO_CRL_MODE5 | GPIO_CRL_CNF5_1 |
                  GPIO_CRL_CNF6_0 |
                  GPIO_CRL_MODE7 | GPIO_CRL_CNF7_1;

    GPIOA->BSRR = GPIO_BSRR_BS4;
 80002ee:	2210      	movs	r2, #16
 80002f0:	611a      	str	r2, [r3, #16]

    SPI1->CR1 = SPI_CR1_MSTR | SPI_CR1_SSM | SPI_CR1_SSI | SD_SPI_BR_INIT;
 80002f2:	f503 5320 	add.w	r3, r3, #10240	@ 0x2800
 80002f6:	f44f 724d 	mov.w	r2, #820	@ 0x334
 80002fa:	601a      	str	r2, [r3, #0]
    SPI1->CR2 = 0u;
 80002fc:	2200      	movs	r2, #0
 80002fe:	605a      	str	r2, [r3, #4]
    SPI1->CR1 |= SPI_CR1_SPE;
 8000300:	681a      	ldr	r2, [r3, #0]
 8000302:	f042 0240 	orr.w	r2, r2, #64	@ 0x40
 8000306:	601a      	str	r2, [r3, #0]
}
 8000308:	4770      	bx	lr
 800030a:	bf00      	nop
 800030c:	40021000 	.word	0x40021000
 8000310:	40010800 	.word	0x40010800

08000314 <sd_spi_xfer>:
    GPIOA->BRR = GPIO_BRR_BR4;
}

static uint8_t sd_spi_xfer(uint8_t tx)
{
    while ((SPI1->SR & SPI_SR_TXE) == 0u) {
 8000314:	4b07      	ldr	r3, [pc, #28]	@ (8000334 <sd_spi_xfer+0x20>)
 8000316:	689b      	ldr	r3, [r3, #8]
 8000318:	f013 0f02 	tst.w	r3, #2
 800031c:	d0fa      	beq.n	8000314 <sd_spi_xfer>
        /* Wait for TX buffer availability. */
    }

    *(__IO uint8_t *)&SPI1->DR = tx;
 800031e:	4b05      	ldr	r3, [pc, #20]	@ (8000334 <sd_spi_xfer+0x20>)
 8000320:	7318      	strb	r0, [r3, #12]

    while ((SPI1->SR & SPI_SR_RXNE) == 0u) {
 8000322:	4b04      	ldr	r3, [pc, #16]	@ (8000334 <sd_spi_xfer+0x20>)
 8000324:	689b      	ldr	r3, [r3, #8]
 8000326:	f013 0f01 	tst.w	r3, #1
 800032a:	d0fa      	beq.n	8000322 <sd_spi_xfer+0xe>
        /* Wait for RX data. */
    }

    return *(__IO uint8_t *)&SPI1->DR;
 800032c:	4b01      	ldr	r3, [pc, #4]	@ (8000334 <sd_spi_xfer+0x20>)
 800032e:	7b18      	ldrb	r0, [r3, #12]
}
 8000330:	4770      	bx	lr
 8000332:	bf00      	nop
 8000334:	40013000 	.word	0x40013000

08000338 <sd_deselect>:

static void sd_deselect(void)
{
 8000338:	b508      	push	{r3, lr}
    GPIOA->BSRR = GPIO_BSRR_BS4;
 800033a:	4b03      	ldr	r3, [pc, #12]	@ (8000348 <sd_deselect+0x10>)
 800033c:	2210      	movs	r2, #16
 800033e:	611a      	str	r2, [r3, #16]
    sd_cs_high();
    sd_spi_xfer(0xFFu);
 8000340:	20ff      	movs	r0, #255	@ 0xff
 8000342:	f7ff ffe7 	bl	8000314 <sd_spi_xfer>
}
 8000346:	bd08      	pop	{r3, pc}
 8000348:	40010800 	.word	0x40010800

0800034c <sd_wait_ready>:

static bool sd_wait_ready(uint32_t timeout_bytes)
{
 800034c:	b538      	push	{r3, r4, r5, lr}
 800034e:	4605      	mov	r5, r0
    uint32_t i;

    for (i = 0u; i < timeout_bytes; i++) {
 8000350:	2400      	movs	r4, #0
 8000352:	e000      	b.n	8000356 <sd_wait_ready+0xa>
 8000354:	3401      	adds	r4, #1
 8000356:	42ac      	cmp	r4, r5
 8000358:	d206      	bcs.n	8000368 <sd_wait_ready+0x1c>
        if (sd_spi_xfer(0xFFu) == 0xFFu) {
 800035a:	20ff      	movs	r0, #255	@ 0xff
 800035c:	f7ff ffda 	bl	8000314 <sd_spi_xfer>
 8000360:	28ff      	cmp	r0, #255	@ 0xff
 8000362:	d1f7      	bne.n	8000354 <sd_wait_ready+0x8>
            return true;
 8000364:	2001      	movs	r0, #1
 8000366:	e000      	b.n	800036a <sd_wait_ready+0x1e>
        }
    }

    return false;
 8000368:	2000      	movs	r0, #0
}
 800036a:	bd38      	pop	{r3, r4, r5, pc}

0800036c <sd_select>:

static bool sd_select(void)
{
 800036c:	b508      	push	{r3, lr}
    GPIOA->BRR = GPIO_BRR_BR4;
 800036e:	4b04      	ldr	r3, [pc, #16]	@ (8000380 <sd_select+0x14>)
 8000370:	2210      	movs	r2, #16
 8000372:	615a      	str	r2, [r3, #20]
    sd_cs_low();
    return sd_wait_ready(50000u);
 8000374:	f24c 3050 	movw	r0, #50000	@ 0xc350
 8000378:	f7ff ffe8 	bl	800034c <sd_wait_ready>
}
 800037c:	bd08      	pop	{r3, pc}
 800037e:	bf00      	nop
 8000380:	40010800 	.word	0x40010800

08000384 <sd_send_initial_clocks>:

static void sd_send_initial_clocks(void)
{
 8000384:	b510      	push	{r4, lr}
    uint32_t i;

    sd_deselect();
 8000386:	f7ff ffd7 	bl	8000338 <sd_deselect>
    for (i = 0u; i < 10u; i++) {
 800038a:	2400      	movs	r4, #0
 800038c:	e003      	b.n	8000396 <sd_send_initial_clocks+0x12>
        sd_spi_xfer(0xFFu);
 800038e:	20ff      	movs	r0, #255	@ 0xff
 8000390:	f7ff ffc0 	bl	8000314 <sd_spi_xfer>
    for (i = 0u; i < 10u; i++) {
 8000394:	3401      	adds	r4, #1
 8000396:	2c09      	cmp	r4, #9
 8000398:	d9f9      	bls.n	800038e <sd_send_initial_clocks+0xa>
    }
}
 800039a:	bd10      	pop	{r4, pc}

0800039c <sd_send_command_selected>:

static uint8_t sd_send_command_selected(uint8_t cmd, uint32_t arg, uint8_t crc)
{
 800039c:	b538      	push	{r3, r4, r5, lr}
 800039e:	460c      	mov	r4, r1
 80003a0:	4615      	mov	r5, r2
    uint8_t r1 = 0xFFu;
    uint32_t i;

    sd_spi_xfer((uint8_t)(0x40u | cmd));
 80003a2:	f040 0040 	orr.w	r0, r0, #64	@ 0x40
 80003a6:	f7ff ffb5 	bl	8000314 <sd_spi_xfer>
    sd_spi_xfer((uint8_t)(arg >> 24));
 80003aa:	0e20      	lsrs	r0, r4, #24
 80003ac:	f7ff ffb2 	bl	8000314 <sd_spi_xfer>
    sd_spi_xfer((uint8_t)(arg >> 16));
 80003b0:	f3c4 4007 	ubfx	r0, r4, #16, #8
 80003b4:	f7ff ffae 	bl	8000314 <sd_spi_xfer>
    sd_spi_xfer((uint8_t)(arg >> 8));
 80003b8:	f3c4 2007 	ubfx	r0, r4, #8, #8
 80003bc:	f7ff ffaa 	bl	8000314 <sd_spi_xfer>
    sd_spi_xfer((uint8_t)arg);
 80003c0:	b2e0      	uxtb	r0, r4
 80003c2:	f7ff ffa7 	bl	8000314 <sd_spi_xfer>
    sd_spi_xfer(crc);
 80003c6:	4628      	mov	r0, r5
 80003c8:	f7ff ffa4 	bl	8000314 <sd_spi_xfer>

    for (i = 0u; i < 10u; i++) {
 80003cc:	2400      	movs	r4, #0
    uint8_t r1 = 0xFFu;
 80003ce:	20ff      	movs	r0, #255	@ 0xff
    for (i = 0u; i < 10u; i++) {
 80003d0:	2c09      	cmp	r4, #9
 80003d2:	d807      	bhi.n	80003e4 <sd_send_command_selected+0x48>
        r1 = sd_spi_xfer(0xFFu);
 80003d4:	20ff      	movs	r0, #255	@ 0xff
 80003d6:	f7ff ff9d 	bl	8000314 <sd_spi_xfer>
        if ((r1 & 0x80u) == 0u) {
 80003da:	f010 0f80 	tst.w	r0, #128	@ 0x80
 80003de:	d001      	beq.n	80003e4 <sd_send_command_selected+0x48>
    for (i = 0u; i < 10u; i++) {
 80003e0:	3401      	adds	r4, #1
 80003e2:	e7f5      	b.n	80003d0 <sd_send_command_selected+0x34>
            break;
        }
    }

    return r1;
}
 80003e4:	bd38      	pop	{r3, r4, r5, pc}

080003e6 <sd_send_command>:

static uint8_t sd_send_command(uint8_t cmd, uint32_t arg, uint8_t crc)
{
 80003e6:	b570      	push	{r4, r5, r6, lr}
 80003e8:	4604      	mov	r4, r0
 80003ea:	460d      	mov	r5, r1
 80003ec:	4616      	mov	r6, r2
    uint8_t r1;

    sd_deselect();
 80003ee:	f7ff ffa3 	bl	8000338 <sd_deselect>
    if (!sd_select()) {
 80003f2:	f7ff ffbb 	bl	800036c <sd_select>
 80003f6:	b148      	cbz	r0, 800040c <sd_send_command+0x26>
        sd_deselect();
        return 0xFFu;
    }

    r1 = sd_send_command_selected(cmd, arg, crc);
 80003f8:	4632      	mov	r2, r6
 80003fa:	4629      	mov	r1, r5
 80003fc:	4620      	mov	r0, r4
 80003fe:	f7ff ffcd 	bl	800039c <sd_send_command_selected>
 8000402:	4604      	mov	r4, r0
    sd_deselect();
 8000404:	f7ff ff98 	bl	8000338 <sd_deselect>
    return r1;
}
 8000408:	4620      	mov	r0, r4
 800040a:	bd70      	pop	{r4, r5, r6, pc}
        sd_deselect();
 800040c:	f7ff ff94 	bl	8000338 <sd_deselect>
        return 0xFFu;
 8000410:	24ff      	movs	r4, #255	@ 0xff
 8000412:	e7f9      	b.n	8000408 <sd_send_command+0x22>

08000414 <sd_send_app_command>:

static uint8_t sd_send_app_command(uint8_t acmd, uint32_t arg)
{
 8000414:	b538      	push	{r3, r4, r5, lr}
 8000416:	4604      	mov	r4, r0
 8000418:	460d      	mov	r5, r1
    uint8_t r1 = sd_send_command(SD_CMD55, 0u, 0xFFu);
 800041a:	22ff      	movs	r2, #255	@ 0xff
 800041c:	2100      	movs	r1, #0
 800041e:	2037      	movs	r0, #55	@ 0x37
 8000420:	f7ff ffe1 	bl	80003e6 <sd_send_command>
    if (r1 > 0x01u) {
 8000424:	2801      	cmp	r0, #1
 8000426:	d900      	bls.n	800042a <sd_send_app_command+0x16>
        return r1;
    }
    return sd_send_command(acmd, arg, 0xFFu);
}
 8000428:	bd38      	pop	{r3, r4, r5, pc}
    return sd_send_command(acmd, arg, 0xFFu);
 800042a:	22ff      	movs	r2, #255	@ 0xff
 800042c:	4629      	mov	r1, r5
 800042e:	4620      	mov	r0, r4
 8000430:	f7ff ffd9 	bl	80003e6 <sd_send_command>
 8000434:	e7f8      	b.n	8000428 <sd_send_app_command+0x14>
	...

08000438 <sd_read_data_selected>:

static bool sd_read_data_selected(uint8_t *buffer, uint32_t length)
{
 8000438:	b570      	push	{r4, r5, r6, lr}
 800043a:	4606      	mov	r6, r0
 800043c:	460d      	mov	r5, r1
    uint32_t i;
    uint8_t token = 0xFFu;
 800043e:	20ff      	movs	r0, #255	@ 0xff

    for (i = 0u; i < 100000u; i++) {
 8000440:	2400      	movs	r4, #0
 8000442:	4b0f      	ldr	r3, [pc, #60]	@ (8000480 <sd_read_data_selected+0x48>)
 8000444:	429c      	cmp	r4, r3
 8000446:	d806      	bhi.n	8000456 <sd_read_data_selected+0x1e>
        token = sd_spi_xfer(0xFFu);
 8000448:	20ff      	movs	r0, #255	@ 0xff
 800044a:	f7ff ff63 	bl	8000314 <sd_spi_xfer>
        if (token != 0xFFu) {
 800044e:	28ff      	cmp	r0, #255	@ 0xff
 8000450:	d101      	bne.n	8000456 <sd_read_data_selected+0x1e>
    for (i = 0u; i < 100000u; i++) {
 8000452:	3401      	adds	r4, #1
 8000454:	e7f5      	b.n	8000442 <sd_read_data_selected+0xa>
            break;
        }
    }

    if (token != SD_DATA_TOKEN) {
 8000456:	28fe      	cmp	r0, #254	@ 0xfe
 8000458:	d110      	bne.n	800047c <sd_read_data_selected+0x44>
        return false;
    }

    for (i = 0u; i < length; i++) {
 800045a:	2400      	movs	r4, #0
 800045c:	e004      	b.n	8000468 <sd_read_data_selected+0x30>
        buffer[i] = sd_spi_xfer(0xFFu);
 800045e:	20ff      	movs	r0, #255	@ 0xff
 8000460:	f7ff ff58 	bl	8000314 <sd_spi_xfer>
 8000464:	5530      	strb	r0, [r6, r4]
    for (i = 0u; i < length; i++) {
 8000466:	3401      	adds	r4, #1
 8000468:	42ac      	cmp	r4, r5
 800046a:	d3f8      	bcc.n	800045e <sd_read_data_selected+0x26>
    }

    sd_spi_xfer(0xFFu);
 800046c:	20ff      	movs	r0, #255	@ 0xff
 800046e:	f7ff ff51 	bl	8000314 <sd_spi_xfer>
    sd_spi_xfer(0xFFu);
 8000472:	20ff      	movs	r0, #255	@ 0xff
 8000474:	f7ff ff4e 	bl	8000314 <sd_spi_xfer>
    return true;
 8000478:	2001      	movs	r0, #1
}
 800047a:	bd70      	pop	{r4, r5, r6, pc}
        return false;
 800047c:	2000      	movs	r0, #0
 800047e:	e7fc      	b.n	800047a <sd_read_data_selected+0x42>
 8000480:	0001869f 	.word	0x0001869f

08000484 <sd_read_register>:

static bool sd_read_register(uint8_t cmd, uint8_t *buffer)
{
 8000484:	b570      	push	{r4, r5, r6, lr}
 8000486:	4604      	mov	r4, r0
 8000488:	460d      	mov	r5, r1
    uint8_t r1;

    sd_deselect();
 800048a:	f7ff ff55 	bl	8000338 <sd_deselect>
    if (!sd_select()) {
 800048e:	f7ff ff6d 	bl	800036c <sd_select>
 8000492:	b178      	cbz	r0, 80004b4 <sd_read_register+0x30>
        sd_deselect();
        return false;
    }

    r1 = sd_send_command_selected(cmd, 0u, 0xFFu);
 8000494:	22ff      	movs	r2, #255	@ 0xff
 8000496:	2100      	movs	r1, #0
 8000498:	4620      	mov	r0, r4
 800049a:	f7ff ff7f 	bl	800039c <sd_send_command_selected>
    if (r1 != 0x00u && r1 != SD_R1_IDLE) {
 800049e:	2801      	cmp	r0, #1
 80004a0:	d80d      	bhi.n	80004be <sd_read_register+0x3a>
        sd_deselect();
        return false;
    }

    if (!sd_read_data_selected(buffer, 16u)) {
 80004a2:	2110      	movs	r1, #16
 80004a4:	4628      	mov	r0, r5
 80004a6:	f7ff ffc7 	bl	8000438 <sd_read_data_selected>
 80004aa:	4606      	mov	r6, r0
 80004ac:	b158      	cbz	r0, 80004c6 <sd_read_register+0x42>
        sd_deselect();
        return false;
    }

    sd_deselect();
 80004ae:	f7ff ff43 	bl	8000338 <sd_deselect>
    return true;
 80004b2:	e002      	b.n	80004ba <sd_read_register+0x36>
 80004b4:	4606      	mov	r6, r0
        sd_deselect();
 80004b6:	f7ff ff3f 	bl	8000338 <sd_deselect>
}
 80004ba:	4630      	mov	r0, r6
 80004bc:	bd70      	pop	{r4, r5, r6, pc}
        sd_deselect();
 80004be:	f7ff ff3b 	bl	8000338 <sd_deselect>
        return false;
 80004c2:	2600      	movs	r6, #0
 80004c4:	e7f9      	b.n	80004ba <sd_read_register+0x36>
        sd_deselect();
 80004c6:	f7ff ff37 	bl	8000338 <sd_deselect>
        return false;
 80004ca:	e7f6      	b.n	80004ba <sd_read_register+0x36>

080004cc <sd_read_ocr>:

static bool sd_read_ocr(uint32_t *ocr_out)
{
 80004cc:	e92d 43f0 	stmdb	sp!, {r4, r5, r6, r7, r8, r9, lr}
 80004d0:	b083      	sub	sp, #12
 80004d2:	4605      	mov	r5, r0
    uint8_t r1;
    uint8_t ocr[4];

    sd_deselect();
 80004d4:	f7ff ff30 	bl	8000338 <sd_deselect>
    if (!sd_select()) {
 80004d8:	f7ff ff48 	bl	800036c <sd_select>
 80004dc:	4606      	mov	r6, r0
 80004de:	b358      	cbz	r0, 8000538 <sd_read_ocr+0x6c>
        sd_deselect();
        return false;
    }

    r1 = sd_send_command_selected(SD_CMD58, 0u, 0xFFu);
 80004e0:	22ff      	movs	r2, #255	@ 0xff
 80004e2:	2100      	movs	r1, #0
 80004e4:	203a      	movs	r0, #58	@ 0x3a
 80004e6:	f7ff ff59 	bl	800039c <sd_send_command_selected>
    if (r1 != 0x00u && r1 != SD_R1_IDLE) {
 80004ea:	2801      	cmp	r0, #1
 80004ec:	d827      	bhi.n	800053e <sd_read_ocr+0x72>
        sd_deselect();
        return false;
    }

    ocr[0] = sd_spi_xfer(0xFFu);
 80004ee:	20ff      	movs	r0, #255	@ 0xff
 80004f0:	f7ff ff10 	bl	8000314 <sd_spi_xfer>
 80004f4:	4681      	mov	r9, r0
 80004f6:	f88d 0004 	strb.w	r0, [sp, #4]
    ocr[1] = sd_spi_xfer(0xFFu);
 80004fa:	20ff      	movs	r0, #255	@ 0xff
 80004fc:	f7ff ff0a 	bl	8000314 <sd_spi_xfer>
 8000500:	4604      	mov	r4, r0
 8000502:	f88d 0005 	strb.w	r0, [sp, #5]
    ocr[2] = sd_spi_xfer(0xFFu);
 8000506:	20ff      	movs	r0, #255	@ 0xff
 8000508:	f7ff ff04 	bl	8000314 <sd_spi_xfer>
 800050c:	4680      	mov	r8, r0
 800050e:	f88d 0006 	strb.w	r0, [sp, #6]
    ocr[3] = sd_spi_xfer(0xFFu);
 8000512:	20ff      	movs	r0, #255	@ 0xff
 8000514:	f7ff fefe 	bl	8000314 <sd_spi_xfer>
 8000518:	4607      	mov	r7, r0
 800051a:	f88d 0007 	strb.w	r0, [sp, #7]
    sd_deselect();
 800051e:	f7ff ff0b 	bl	8000338 <sd_deselect>

    *ocr_out = ((uint32_t)ocr[0] << 24) |
               ((uint32_t)ocr[1] << 16) |
 8000522:	0424      	lsls	r4, r4, #16
    *ocr_out = ((uint32_t)ocr[0] << 24) |
 8000524:	ea44 6409 	orr.w	r4, r4, r9, lsl #24
               ((uint32_t)ocr[1] << 16) |
 8000528:	ea44 2408 	orr.w	r4, r4, r8, lsl #8
               ((uint32_t)ocr[2] << 8) |
 800052c:	433c      	orrs	r4, r7
    *ocr_out = ((uint32_t)ocr[0] << 24) |
 800052e:	602c      	str	r4, [r5, #0]
               (uint32_t)ocr[3];
    return true;
}
 8000530:	4630      	mov	r0, r6
 8000532:	b003      	add	sp, #12
 8000534:	e8bd 83f0 	ldmia.w	sp!, {r4, r5, r6, r7, r8, r9, pc}
        sd_deselect();
 8000538:	f7ff fefe 	bl	8000338 <sd_deselect>
        return false;
 800053c:	e7f8      	b.n	8000530 <sd_read_ocr+0x64>
        sd_deselect();
 800053e:	f7ff fefb 	bl	8000338 <sd_deselect>
        return false;
 8000542:	2600      	movs	r6, #0
 8000544:	e7f4      	b.n	8000530 <sd_read_ocr+0x64>
	...

08000548 <sd_read_block>:

static bool sd_read_block(uint32_t lba, uint8_t *buffer)
{
 8000548:	b570      	push	{r4, r5, r6, lr}
 800054a:	4604      	mov	r4, r0
 800054c:	460d      	mov	r5, r1
    uint32_t address = g_sd_is_sdhc ? lba : (lba * SD_SECTOR_SIZE);
 800054e:	4b12      	ldr	r3, [pc, #72]	@ (8000598 <sd_read_block+0x50>)
 8000550:	781b      	ldrb	r3, [r3, #0]
 8000552:	b903      	cbnz	r3, 8000556 <sd_read_block+0xe>
 8000554:	0244      	lsls	r4, r0, #9
    uint8_t r1;

    sd_deselect();
 8000556:	f7ff feef 	bl	8000338 <sd_deselect>
    if (!sd_select()) {
 800055a:	f7ff ff07 	bl	800036c <sd_select>
 800055e:	4606      	mov	r6, r0
 8000560:	b178      	cbz	r0, 8000582 <sd_read_block+0x3a>
        sd_deselect();
        return false;
    }

    r1 = sd_send_command_selected(SD_CMD17, address, 0xFFu);
 8000562:	22ff      	movs	r2, #255	@ 0xff
 8000564:	4621      	mov	r1, r4
 8000566:	2011      	movs	r0, #17
 8000568:	f7ff ff18 	bl	800039c <sd_send_command_selected>
    if (r1 != 0x00u) {
 800056c:	b968      	cbnz	r0, 800058a <sd_read_block+0x42>
        sd_deselect();
        return false;
    }

    if (!sd_read_data_selected(buffer, SD_SECTOR_SIZE)) {
 800056e:	f44f 7100 	mov.w	r1, #512	@ 0x200
 8000572:	4628      	mov	r0, r5
 8000574:	f7ff ff60 	bl	8000438 <sd_read_data_selected>
 8000578:	4606      	mov	r6, r0
 800057a:	b150      	cbz	r0, 8000592 <sd_read_block+0x4a>
        sd_deselect();
        return false;
    }

    sd_deselect();
 800057c:	f7ff fedc 	bl	8000338 <sd_deselect>
    return true;
 8000580:	e001      	b.n	8000586 <sd_read_block+0x3e>
        sd_deselect();
 8000582:	f7ff fed9 	bl	8000338 <sd_deselect>
}
 8000586:	4630      	mov	r0, r6
 8000588:	bd70      	pop	{r4, r5, r6, pc}
        sd_deselect();
 800058a:	f7ff fed5 	bl	8000338 <sd_deselect>
        return false;
 800058e:	2600      	movs	r6, #0
 8000590:	e7f9      	b.n	8000586 <sd_read_block+0x3e>
        sd_deselect();
 8000592:	f7ff fed1 	bl	8000338 <sd_deselect>
        return false;
 8000596:	e7f6      	b.n	8000586 <sd_read_block+0x3e>
 8000598:	2000100c 	.word	0x2000100c

0800059c <sd_write_data_selected>:

static bool sd_write_data_selected(const uint8_t *buffer, uint8_t token)
{
 800059c:	b538      	push	{r3, r4, r5, lr}
 800059e:	4605      	mov	r5, r0
 80005a0:	460c      	mov	r4, r1
    uint32_t i;
    uint8_t response;

    sd_spi_xfer(0xFFu);
 80005a2:	20ff      	movs	r0, #255	@ 0xff
 80005a4:	f7ff feb6 	bl	8000314 <sd_spi_xfer>
    sd_spi_xfer(token);
 80005a8:	4620      	mov	r0, r4
 80005aa:	f7ff feb3 	bl	8000314 <sd_spi_xfer>

    for (i = 0u; i < SD_SECTOR_SIZE; i++) {
 80005ae:	2400      	movs	r4, #0
 80005b0:	e003      	b.n	80005ba <sd_write_data_selected+0x1e>
        sd_spi_xfer(buffer[i]);
 80005b2:	5d28      	ldrb	r0, [r5, r4]
 80005b4:	f7ff feae 	bl	8000314 <sd_spi_xfer>
    for (i = 0u; i < SD_SECTOR_SIZE; i++) {
 80005b8:	3401      	adds	r4, #1
 80005ba:	f5b4 7f00 	cmp.w	r4, #512	@ 0x200
 80005be:	d3f8      	bcc.n	80005b2 <sd_write_data_selected+0x16>
    }

    /* CRC is ignored in SPI mode unless explicitly enabled. */
    sd_spi_xfer(0xFFu);
 80005c0:	20ff      	movs	r0, #255	@ 0xff
 80005c2:	f7ff fea7 	bl	8000314 <sd_spi_xfer>
    sd_spi_xfer(0xFFu);
 80005c6:	20ff      	movs	r0, #255	@ 0xff
 80005c8:	f7ff fea4 	bl	8000314 <sd_spi_xfer>

    response = sd_spi_xfer(0xFFu) & 0x1Fu;
 80005cc:	20ff      	movs	r0, #255	@ 0xff
 80005ce:	f7ff fea1 	bl	8000314 <sd_spi_xfer>
 80005d2:	f000 031f 	and.w	r3, r0, #31
    if (response != SD_DATA_ACCEPTED) {
 80005d6:	2b05      	cmp	r3, #5
 80005d8:	d001      	beq.n	80005de <sd_write_data_selected+0x42>
        return false;
 80005da:	2000      	movs	r0, #0
    }

    return sd_wait_ready(200000u);
}
 80005dc:	bd38      	pop	{r3, r4, r5, pc}
    return sd_wait_ready(200000u);
 80005de:	4802      	ldr	r0, [pc, #8]	@ (80005e8 <sd_write_data_selected+0x4c>)
 80005e0:	f7ff feb4 	bl	800034c <sd_wait_ready>
 80005e4:	e7fa      	b.n	80005dc <sd_write_data_selected+0x40>
 80005e6:	bf00      	nop
 80005e8:	00030d40 	.word	0x00030d40

080005ec <sd_write_block>:

static bool sd_write_block(uint32_t lba, const uint8_t *buffer)
{
 80005ec:	b570      	push	{r4, r5, r6, lr}
 80005ee:	4604      	mov	r4, r0
 80005f0:	460d      	mov	r5, r1
    uint32_t address = g_sd_is_sdhc ? lba : (lba * SD_SECTOR_SIZE);
 80005f2:	4b12      	ldr	r3, [pc, #72]	@ (800063c <sd_write_block+0x50>)
 80005f4:	781b      	ldrb	r3, [r3, #0]
 80005f6:	b903      	cbnz	r3, 80005fa <sd_write_block+0xe>
 80005f8:	0244      	lsls	r4, r0, #9
    uint8_t r1;

    sd_deselect();
 80005fa:	f7ff fe9d 	bl	8000338 <sd_deselect>
    if (!sd_select()) {
 80005fe:	f7ff feb5 	bl	800036c <sd_select>
 8000602:	4606      	mov	r6, r0
 8000604:	b170      	cbz	r0, 8000624 <sd_write_block+0x38>
        sd_deselect();
        return false;
    }

    r1 = sd_send_command_selected(SD_CMD24, address, 0xFFu);
 8000606:	22ff      	movs	r2, #255	@ 0xff
 8000608:	4621      	mov	r1, r4
 800060a:	2018      	movs	r0, #24
 800060c:	f7ff fec6 	bl	800039c <sd_send_command_selected>
    if (r1 != 0x00u) {
 8000610:	b960      	cbnz	r0, 800062c <sd_write_block+0x40>
        sd_deselect();
        return false;
    }

    if (!sd_write_data_selected(buffer, SD_DATA_TOKEN)) {
 8000612:	21fe      	movs	r1, #254	@ 0xfe
 8000614:	4628      	mov	r0, r5
 8000616:	f7ff ffc1 	bl	800059c <sd_write_data_selected>
 800061a:	4606      	mov	r6, r0
 800061c:	b150      	cbz	r0, 8000634 <sd_write_block+0x48>
        sd_deselect();
        return false;
    }

    sd_deselect();
 800061e:	f7ff fe8b 	bl	8000338 <sd_deselect>
    return true;
 8000622:	e001      	b.n	8000628 <sd_write_block+0x3c>
        sd_deselect();
 8000624:	f7ff fe88 	bl	8000338 <sd_deselect>
}
 8000628:	4630      	mov	r0, r6
 800062a:	bd70      	pop	{r4, r5, r6, pc}
        sd_deselect();
 800062c:	f7ff fe84 	bl	8000338 <sd_deselect>
        return false;
 8000630:	2600      	movs	r6, #0
 8000632:	e7f9      	b.n	8000628 <sd_write_block+0x3c>
        sd_deselect();
 8000634:	f7ff fe80 	bl	8000338 <sd_deselect>
        return false;
 8000638:	e7f6      	b.n	8000628 <sd_write_block+0x3c>
 800063a:	bf00      	nop
 800063c:	2000100c 	.word	0x2000100c

08000640 <sd_extract_bits>:

static uint32_t sd_extract_bits(const uint8_t *data, uint8_t msb, uint8_t lsb)
{
 8000640:	b500      	push	{lr}
 8000642:	4686      	mov	lr, r0
    uint32_t value = 0u;
 8000644:	2000      	movs	r0, #0
    uint8_t bit;

    for (bit = msb; bit >= lsb; bit--) {
 8000646:	e001      	b.n	800064c <sd_extract_bits+0xc>
 8000648:	3901      	subs	r1, #1
 800064a:	b2c9      	uxtb	r1, r1
 800064c:	4291      	cmp	r1, r2
 800064e:	d30f      	bcc.n	8000670 <sd_extract_bits+0x30>
        uint8_t byte_index = (uint8_t)(15u - (bit / 8u));
 8000650:	08cb      	lsrs	r3, r1, #3
 8000652:	f1c3 030f 	rsb	r3, r3, #15
 8000656:	b2db      	uxtb	r3, r3
        uint8_t bit_index = (uint8_t)(bit & 7u);
 8000658:	f001 0c07 	and.w	ip, r1, #7
        value <<= 1;
        value |= (uint32_t)((data[byte_index] >> bit_index) & 1u);
 800065c:	f81e 3003 	ldrb.w	r3, [lr, r3]
 8000660:	fa43 f30c 	asr.w	r3, r3, ip
 8000664:	f003 0301 	and.w	r3, r3, #1
 8000668:	ea43 0040 	orr.w	r0, r3, r0, lsl #1
        if (bit == lsb) {
 800066c:	4291      	cmp	r1, r2
 800066e:	d1eb      	bne.n	8000648 <sd_extract_bits+0x8>
            break;
        }
    }

    return value;
}
 8000670:	f85d fb04 	ldr.w	pc, [sp], #4

08000674 <sd_csd_sector_count>:

static uint32_t sd_csd_sector_count(const uint8_t *csd)
{
 8000674:	b570      	push	{r4, r5, r6, lr}
 8000676:	4605      	mov	r5, r0
    uint32_t csd_structure = sd_extract_bits(csd, 127u, 126u);
 8000678:	227e      	movs	r2, #126	@ 0x7e
 800067a:	217f      	movs	r1, #127	@ 0x7f
 800067c:	f7ff ffe0 	bl	8000640 <sd_extract_bits>

    if (csd_structure == 1u) {
 8000680:	2801      	cmp	r0, #1
 8000682:	d002      	beq.n	800068a <sd_csd_sector_count+0x16>
        uint32_t c_size = sd_extract_bits(csd, 69u, 48u);
        return (c_size + 1u) * 1024u;
    }

    if (csd_structure == 0u) {
 8000684:	b148      	cbz	r0, 800069a <sd_csd_sector_count+0x26>
        uint32_t block_len = 1u << read_bl_len;
        uint32_t blocknr = (c_size + 1u) * (1u << (c_size_mult + 2u));
        return (blocknr * block_len) / SD_SECTOR_SIZE;
    }

    return 0u;
 8000686:	2000      	movs	r0, #0
}
 8000688:	bd70      	pop	{r4, r5, r6, pc}
        uint32_t c_size = sd_extract_bits(csd, 69u, 48u);
 800068a:	2230      	movs	r2, #48	@ 0x30
 800068c:	2145      	movs	r1, #69	@ 0x45
 800068e:	4628      	mov	r0, r5
 8000690:	f7ff ffd6 	bl	8000640 <sd_extract_bits>
        return (c_size + 1u) * 1024u;
 8000694:	3001      	adds	r0, #1
 8000696:	0280      	lsls	r0, r0, #10
 8000698:	e7f6      	b.n	8000688 <sd_csd_sector_count+0x14>
        uint32_t read_bl_len = sd_extract_bits(csd, 83u, 80u);
 800069a:	2250      	movs	r2, #80	@ 0x50
 800069c:	2153      	movs	r1, #83	@ 0x53
 800069e:	4628      	mov	r0, r5
 80006a0:	f7ff ffce 	bl	8000640 <sd_extract_bits>
 80006a4:	4606      	mov	r6, r0
        uint32_t c_size = sd_extract_bits(csd, 73u, 62u);
 80006a6:	223e      	movs	r2, #62	@ 0x3e
 80006a8:	2149      	movs	r1, #73	@ 0x49
 80006aa:	4628      	mov	r0, r5
 80006ac:	f7ff ffc8 	bl	8000640 <sd_extract_bits>
 80006b0:	4604      	mov	r4, r0
        uint32_t c_size_mult = sd_extract_bits(csd, 49u, 47u);
 80006b2:	222f      	movs	r2, #47	@ 0x2f
 80006b4:	2131      	movs	r1, #49	@ 0x31
 80006b6:	4628      	mov	r0, r5
 80006b8:	f7ff ffc2 	bl	8000640 <sd_extract_bits>
        uint32_t blocknr = (c_size + 1u) * (1u << (c_size_mult + 2u));
 80006bc:	3401      	adds	r4, #1
 80006be:	3002      	adds	r0, #2
 80006c0:	4084      	lsls	r4, r0
        return (blocknr * block_len) / SD_SECTOR_SIZE;
 80006c2:	fa04 f006 	lsl.w	r0, r4, r6
 80006c6:	0a40      	lsrs	r0, r0, #9
 80006c8:	e7de      	b.n	8000688 <sd_csd_sector_count+0x14>
	...

080006cc <sd_card_init>:

static bool sd_card_init(void)
{
 80006cc:	e92d 41f0 	stmdb	sp!, {r4, r5, r6, r7, r8, lr}
 80006d0:	b08a      	sub	sp, #40	@ 0x28
 80006d2:	2400      	movs	r4, #0
    uint32_t i;
    uint8_t r1;
    uint8_t r7[4];
    uint8_t cid[16];
    uint8_t csd[16];
    uint32_t ocr = 0u;
 80006d4:	9400      	str	r4, [sp, #0]

    g_sd_is_sdhc = false;
 80006d6:	4b8a      	ldr	r3, [pc, #552]	@ (8000900 <sd_card_init+0x234>)
 80006d8:	701c      	strb	r4, [r3, #0]
    g_sd_sector_count = 0u;
 80006da:	4b8a      	ldr	r3, [pc, #552]	@ (8000904 <sd_card_init+0x238>)
 80006dc:	601c      	str	r4, [r3, #0]

    sd_send_initial_clocks();
 80006de:	f7ff fe51 	bl	8000384 <sd_send_initial_clocks>

    usart1_puts("sd: CMD0...\r\n");
 80006e2:	4889      	ldr	r0, [pc, #548]	@ (8000908 <sd_card_init+0x23c>)
 80006e4:	f7ff fd16 	bl	8000114 <usart1_puts>
    for (i = 0u; i < 20u; i++) {
 80006e8:	4625      	mov	r5, r4
 80006ea:	2d13      	cmp	r5, #19
 80006ec:	d809      	bhi.n	8000702 <sd_card_init+0x36>
        r1 = sd_send_command(SD_CMD0, 0u, 0x95u);
 80006ee:	2295      	movs	r2, #149	@ 0x95
 80006f0:	2100      	movs	r1, #0
 80006f2:	4608      	mov	r0, r1
 80006f4:	f7ff fe77 	bl	80003e6 <sd_send_command>
 80006f8:	4604      	mov	r4, r0
        if (r1 == SD_R1_IDLE) {
 80006fa:	2801      	cmp	r0, #1
 80006fc:	d001      	beq.n	8000702 <sd_card_init+0x36>
    for (i = 0u; i < 20u; i++) {
 80006fe:	3501      	adds	r5, #1
 8000700:	e7f3      	b.n	80006ea <sd_card_init+0x1e>
            break;
        }
    }
    usart1_puts("sd: CMD0 R1=0x");
 8000702:	4882      	ldr	r0, [pc, #520]	@ (800090c <sd_card_init+0x240>)
 8000704:	f7ff fd06 	bl	8000114 <usart1_puts>
    usart1_put_hex8(r1);
 8000708:	4620      	mov	r0, r4
 800070a:	f7ff fd0d 	bl	8000128 <usart1_put_hex8>
    usart1_puts("\r\n");
 800070e:	4880      	ldr	r0, [pc, #512]	@ (8000910 <sd_card_init+0x244>)
 8000710:	f7ff fd00 	bl	8000114 <usart1_puts>
    if (r1 != SD_R1_IDLE) {
 8000714:	2c01      	cmp	r4, #1
 8000716:	d004      	beq.n	8000722 <sd_card_init+0x56>
        return false;
 8000718:	2400      	movs	r4, #0
    usart1_put_dec_u32(g_sd_sector_count / 2048u);
    usart1_puts("\r\n");

    sd_spi_set_prescaler(SD_SPI_BR_RUN);
    return true;
}
 800071a:	4620      	mov	r0, r4
 800071c:	b00a      	add	sp, #40	@ 0x28
 800071e:	e8bd 81f0 	ldmia.w	sp!, {r4, r5, r6, r7, r8, pc}
    sd_deselect();
 8000722:	f7ff fe09 	bl	8000338 <sd_deselect>
    if (!sd_select()) {
 8000726:	f7ff fe21 	bl	800036c <sd_select>
 800072a:	4604      	mov	r4, r0
 800072c:	2800      	cmp	r0, #0
 800072e:	d052      	beq.n	80007d6 <sd_card_init+0x10a>
    r1 = sd_send_command_selected(SD_CMD8, 0x000001AAu, 0x87u);
 8000730:	2287      	movs	r2, #135	@ 0x87
 8000732:	f44f 71d5 	mov.w	r1, #426	@ 0x1aa
 8000736:	2008      	movs	r0, #8
 8000738:	f7ff fe30 	bl	800039c <sd_send_command_selected>
 800073c:	4605      	mov	r5, r0
    r7[0] = sd_spi_xfer(0xFFu);
 800073e:	20ff      	movs	r0, #255	@ 0xff
 8000740:	f7ff fde8 	bl	8000314 <sd_spi_xfer>
 8000744:	4680      	mov	r8, r0
 8000746:	f88d 0024 	strb.w	r0, [sp, #36]	@ 0x24
    r7[1] = sd_spi_xfer(0xFFu);
 800074a:	20ff      	movs	r0, #255	@ 0xff
 800074c:	f7ff fde2 	bl	8000314 <sd_spi_xfer>
 8000750:	4607      	mov	r7, r0
 8000752:	f88d 0025 	strb.w	r0, [sp, #37]	@ 0x25
    r7[2] = sd_spi_xfer(0xFFu);
 8000756:	20ff      	movs	r0, #255	@ 0xff
 8000758:	f7ff fddc 	bl	8000314 <sd_spi_xfer>
 800075c:	4606      	mov	r6, r0
 800075e:	f88d 0026 	strb.w	r0, [sp, #38]	@ 0x26
    r7[3] = sd_spi_xfer(0xFFu);
 8000762:	20ff      	movs	r0, #255	@ 0xff
 8000764:	f7ff fdd6 	bl	8000314 <sd_spi_xfer>
 8000768:	4604      	mov	r4, r0
 800076a:	f88d 0027 	strb.w	r0, [sp, #39]	@ 0x27
    sd_deselect();
 800076e:	f7ff fde3 	bl	8000338 <sd_deselect>
    usart1_puts("sd: CMD8 R1=0x");
 8000772:	4868      	ldr	r0, [pc, #416]	@ (8000914 <sd_card_init+0x248>)
 8000774:	f7ff fcce 	bl	8000114 <usart1_puts>
    usart1_put_hex8(r1);
 8000778:	4628      	mov	r0, r5
 800077a:	f7ff fcd5 	bl	8000128 <usart1_put_hex8>
    usart1_puts(" R7=");
 800077e:	4866      	ldr	r0, [pc, #408]	@ (8000918 <sd_card_init+0x24c>)
 8000780:	f7ff fcc8 	bl	8000114 <usart1_puts>
    usart1_put_hex8(r7[0]);
 8000784:	4640      	mov	r0, r8
 8000786:	f7ff fccf 	bl	8000128 <usart1_put_hex8>
    usart1_putc(' ');
 800078a:	2020      	movs	r0, #32
 800078c:	f7ff fcb8 	bl	8000100 <usart1_putc>
    usart1_put_hex8(r7[1]);
 8000790:	4638      	mov	r0, r7
 8000792:	f7ff fcc9 	bl	8000128 <usart1_put_hex8>
    usart1_putc(' ');
 8000796:	2020      	movs	r0, #32
 8000798:	f7ff fcb2 	bl	8000100 <usart1_putc>
    usart1_put_hex8(r7[2]);
 800079c:	4630      	mov	r0, r6
 800079e:	f7ff fcc3 	bl	8000128 <usart1_put_hex8>
    usart1_putc(' ');
 80007a2:	2020      	movs	r0, #32
 80007a4:	f7ff fcac 	bl	8000100 <usart1_putc>
    usart1_put_hex8(r7[3]);
 80007a8:	4620      	mov	r0, r4
 80007aa:	f7ff fcbd 	bl	8000128 <usart1_put_hex8>
    usart1_puts("\r\n");
 80007ae:	4858      	ldr	r0, [pc, #352]	@ (8000910 <sd_card_init+0x244>)
 80007b0:	f7ff fcb0 	bl	8000114 <usart1_puts>
    if ((r1 & SD_R1_ILLEGAL) == 0u) {
 80007b4:	f015 0f04 	tst.w	r5, #4
 80007b8:	d010      	beq.n	80007dc <sd_card_init+0x110>
        for (i = 0u; i < 1000u; i++) {
 80007ba:	2400      	movs	r4, #0
 80007bc:	f5b4 7f7a 	cmp.w	r4, #1000	@ 0x3e8
 80007c0:	f080 8087 	bcs.w	80008d2 <sd_card_init+0x206>
            r1 = sd_send_app_command(SD_ACMD41, 0u);
 80007c4:	2100      	movs	r1, #0
 80007c6:	2029      	movs	r0, #41	@ 0x29
 80007c8:	f7ff fe24 	bl	8000414 <sd_send_app_command>
            if (r1 == 0x00u) {
 80007cc:	4605      	mov	r5, r0
 80007ce:	2800      	cmp	r0, #0
 80007d0:	d07f      	beq.n	80008d2 <sd_card_init+0x206>
        for (i = 0u; i < 1000u; i++) {
 80007d2:	3401      	adds	r4, #1
 80007d4:	e7f2      	b.n	80007bc <sd_card_init+0xf0>
        sd_deselect();
 80007d6:	f7ff fdaf 	bl	8000338 <sd_deselect>
        return false;
 80007da:	e79e      	b.n	800071a <sd_card_init+0x4e>
        for (i = 0u; i < 1000u; i++) {
 80007dc:	2400      	movs	r4, #0
 80007de:	f5b4 7f7a 	cmp.w	r4, #1000	@ 0x3e8
 80007e2:	d208      	bcs.n	80007f6 <sd_card_init+0x12a>
            r1 = sd_send_app_command(SD_ACMD41, 0x40000000u);
 80007e4:	f04f 4180 	mov.w	r1, #1073741824	@ 0x40000000
 80007e8:	2029      	movs	r0, #41	@ 0x29
 80007ea:	f7ff fe13 	bl	8000414 <sd_send_app_command>
            if (r1 == 0x00u) {
 80007ee:	4605      	mov	r5, r0
 80007f0:	b108      	cbz	r0, 80007f6 <sd_card_init+0x12a>
        for (i = 0u; i < 1000u; i++) {
 80007f2:	3401      	adds	r4, #1
 80007f4:	e7f3      	b.n	80007de <sd_card_init+0x112>
        usart1_puts("sd: ACMD41(v2) polls=");
 80007f6:	4849      	ldr	r0, [pc, #292]	@ (800091c <sd_card_init+0x250>)
 80007f8:	f7ff fc8c 	bl	8000114 <usart1_puts>
        usart1_put_dec_u32(i + 1u);
 80007fc:	1c60      	adds	r0, r4, #1
 80007fe:	f7ff fcb5 	bl	800016c <usart1_put_dec_u32>
        usart1_puts(" R1=0x");
 8000802:	4847      	ldr	r0, [pc, #284]	@ (8000920 <sd_card_init+0x254>)
 8000804:	f7ff fc86 	bl	8000114 <usart1_puts>
        usart1_put_hex8(r1);
 8000808:	4628      	mov	r0, r5
 800080a:	f7ff fc8d 	bl	8000128 <usart1_put_hex8>
        usart1_puts("\r\n");
 800080e:	4840      	ldr	r0, [pc, #256]	@ (8000910 <sd_card_init+0x244>)
 8000810:	f7ff fc80 	bl	8000114 <usart1_puts>
        if (r1 != 0x00u) {
 8000814:	2d00      	cmp	r5, #0
 8000816:	d171      	bne.n	80008fc <sd_card_init+0x230>
    if (!sd_read_ocr(&ocr)) {
 8000818:	4668      	mov	r0, sp
 800081a:	f7ff fe57 	bl	80004cc <sd_read_ocr>
 800081e:	4604      	mov	r4, r0
 8000820:	2800      	cmp	r0, #0
 8000822:	f43f af7a 	beq.w	800071a <sd_card_init+0x4e>
    g_sd_is_sdhc = ((ocr & 0x40000000u) != 0u);
 8000826:	9b00      	ldr	r3, [sp, #0]
 8000828:	f3c3 7380 	ubfx	r3, r3, #30, #1
 800082c:	4c34      	ldr	r4, [pc, #208]	@ (8000900 <sd_card_init+0x234>)
 800082e:	7023      	strb	r3, [r4, #0]
    usart1_puts("sd: OCR=0x");
 8000830:	483c      	ldr	r0, [pc, #240]	@ (8000924 <sd_card_init+0x258>)
 8000832:	f7ff fc6f 	bl	8000114 <usart1_puts>
    usart1_put_hex32(ocr);
 8000836:	9800      	ldr	r0, [sp, #0]
 8000838:	f7ff fc8f 	bl	800015a <usart1_put_hex32>
    usart1_puts(" type=");
 800083c:	483a      	ldr	r0, [pc, #232]	@ (8000928 <sd_card_init+0x25c>)
 800083e:	f7ff fc69 	bl	8000114 <usart1_puts>
    usart1_puts(g_sd_is_sdhc ? "SDHC/SDXC" : "SDSC");
 8000842:	7823      	ldrb	r3, [r4, #0]
 8000844:	2b00      	cmp	r3, #0
 8000846:	d057      	beq.n	80008f8 <sd_card_init+0x22c>
 8000848:	4838      	ldr	r0, [pc, #224]	@ (800092c <sd_card_init+0x260>)
 800084a:	f7ff fc63 	bl	8000114 <usart1_puts>
    usart1_puts("\r\n");
 800084e:	4830      	ldr	r0, [pc, #192]	@ (8000910 <sd_card_init+0x244>)
 8000850:	f7ff fc60 	bl	8000114 <usart1_puts>
    if (!g_sd_is_sdhc) {
 8000854:	4b2a      	ldr	r3, [pc, #168]	@ (8000900 <sd_card_init+0x234>)
 8000856:	781c      	ldrb	r4, [r3, #0]
 8000858:	b994      	cbnz	r4, 8000880 <sd_card_init+0x1b4>
        r1 = sd_send_command(SD_CMD16, SD_SECTOR_SIZE, 0xFFu);
 800085a:	22ff      	movs	r2, #255	@ 0xff
 800085c:	f44f 7100 	mov.w	r1, #512	@ 0x200
 8000860:	2010      	movs	r0, #16
 8000862:	f7ff fdc0 	bl	80003e6 <sd_send_command>
 8000866:	4605      	mov	r5, r0
        usart1_puts("sd: CMD16 R1=0x");
 8000868:	4831      	ldr	r0, [pc, #196]	@ (8000930 <sd_card_init+0x264>)
 800086a:	f7ff fc53 	bl	8000114 <usart1_puts>
        usart1_put_hex8(r1);
 800086e:	4628      	mov	r0, r5
 8000870:	f7ff fc5a 	bl	8000128 <usart1_put_hex8>
        usart1_puts("\r\n");
 8000874:	4826      	ldr	r0, [pc, #152]	@ (8000910 <sd_card_init+0x244>)
 8000876:	f7ff fc4d 	bl	8000114 <usart1_puts>
        if (r1 != 0x00u) {
 800087a:	2d00      	cmp	r5, #0
 800087c:	f47f af4d 	bne.w	800071a <sd_card_init+0x4e>
    if (!sd_read_register(SD_CMD10, cid)) {
 8000880:	a905      	add	r1, sp, #20
 8000882:	200a      	movs	r0, #10
 8000884:	f7ff fdfe 	bl	8000484 <sd_read_register>
 8000888:	4604      	mov	r4, r0
 800088a:	2800      	cmp	r0, #0
 800088c:	f43f af45 	beq.w	800071a <sd_card_init+0x4e>
    if (!sd_read_register(SD_CMD9, csd)) {
 8000890:	a901      	add	r1, sp, #4
 8000892:	2009      	movs	r0, #9
 8000894:	f7ff fdf6 	bl	8000484 <sd_read_register>
 8000898:	4604      	mov	r4, r0
 800089a:	2800      	cmp	r0, #0
 800089c:	f43f af3d 	beq.w	800071a <sd_card_init+0x4e>
    g_sd_sector_count = sd_csd_sector_count(csd);
 80008a0:	a801      	add	r0, sp, #4
 80008a2:	f7ff fee7 	bl	8000674 <sd_csd_sector_count>
 80008a6:	4d17      	ldr	r5, [pc, #92]	@ (8000904 <sd_card_init+0x238>)
 80008a8:	6028      	str	r0, [r5, #0]
    usart1_puts("sd: sectors=");
 80008aa:	4822      	ldr	r0, [pc, #136]	@ (8000934 <sd_card_init+0x268>)
 80008ac:	f7ff fc32 	bl	8000114 <usart1_puts>
    usart1_put_dec_u32(g_sd_sector_count);
 80008b0:	6828      	ldr	r0, [r5, #0]
 80008b2:	f7ff fc5b 	bl	800016c <usart1_put_dec_u32>
    usart1_puts(" capacity_mib=");
 80008b6:	4820      	ldr	r0, [pc, #128]	@ (8000938 <sd_card_init+0x26c>)
 80008b8:	f7ff fc2c 	bl	8000114 <usart1_puts>
    usart1_put_dec_u32(g_sd_sector_count / 2048u);
 80008bc:	6828      	ldr	r0, [r5, #0]
 80008be:	0ac0      	lsrs	r0, r0, #11
 80008c0:	f7ff fc54 	bl	800016c <usart1_put_dec_u32>
    usart1_puts("\r\n");
 80008c4:	4812      	ldr	r0, [pc, #72]	@ (8000910 <sd_card_init+0x244>)
 80008c6:	f7ff fc25 	bl	8000114 <usart1_puts>
    sd_spi_set_prescaler(SD_SPI_BR_RUN);
 80008ca:	2028      	movs	r0, #40	@ 0x28
 80008cc:	f7ff fce6 	bl	800029c <sd_spi_set_prescaler>
    return true;
 80008d0:	e723      	b.n	800071a <sd_card_init+0x4e>
        usart1_puts("sd: ACMD41(v1) polls=");
 80008d2:	481a      	ldr	r0, [pc, #104]	@ (800093c <sd_card_init+0x270>)
 80008d4:	f7ff fc1e 	bl	8000114 <usart1_puts>
        usart1_put_dec_u32(i + 1u);
 80008d8:	1c60      	adds	r0, r4, #1
 80008da:	f7ff fc47 	bl	800016c <usart1_put_dec_u32>
        usart1_puts(" R1=0x");
 80008de:	4810      	ldr	r0, [pc, #64]	@ (8000920 <sd_card_init+0x254>)
 80008e0:	f7ff fc18 	bl	8000114 <usart1_puts>
        usart1_put_hex8(r1);
 80008e4:	4628      	mov	r0, r5
 80008e6:	f7ff fc1f 	bl	8000128 <usart1_put_hex8>
        usart1_puts("\r\n");
 80008ea:	4809      	ldr	r0, [pc, #36]	@ (8000910 <sd_card_init+0x244>)
 80008ec:	f7ff fc12 	bl	8000114 <usart1_puts>
        if (r1 != 0x00u) {
 80008f0:	2d00      	cmp	r5, #0
 80008f2:	d091      	beq.n	8000818 <sd_card_init+0x14c>
            return false;
 80008f4:	2400      	movs	r4, #0
 80008f6:	e710      	b.n	800071a <sd_card_init+0x4e>
    usart1_puts(g_sd_is_sdhc ? "SDHC/SDXC" : "SDSC");
 80008f8:	4811      	ldr	r0, [pc, #68]	@ (8000940 <sd_card_init+0x274>)
 80008fa:	e7a6      	b.n	800084a <sd_card_init+0x17e>
            return false;
 80008fc:	2400      	movs	r4, #0
 80008fe:	e70c      	b.n	800071a <sd_card_init+0x4e>
 8000900:	2000100c 	.word	0x2000100c
 8000904:	20001008 	.word	0x20001008
 8000908:	08002550 	.word	0x08002550
 800090c:	08002560 	.word	0x08002560
 8000910:	08002570 	.word	0x08002570
 8000914:	08002574 	.word	0x08002574
 8000918:	08002584 	.word	0x08002584
 800091c:	0800258c 	.word	0x0800258c
 8000920:	08002568 	.word	0x08002568
 8000924:	080025bc 	.word	0x080025bc
 8000928:	080025c8 	.word	0x080025c8
 800092c:	0800253c 	.word	0x0800253c
 8000930:	080025d0 	.word	0x080025d0
 8000934:	080025e0 	.word	0x080025e0
 8000938:	080025f0 	.word	0x080025f0
 800093c:	080025a4 	.word	0x080025a4
 8000940:	08002548 	.word	0x08002548

08000944 <fill_bench_buffer>:
    /*
     * The exact pattern is not important for throughput, but using a
     * deterministic non-zero ramp makes it easier to inspect the generated
     * file later if needed.
     */
    for (i = 0u; i < BENCH_BUFFER_SIZE; i++) {
 8000944:	2300      	movs	r3, #0
 8000946:	e002      	b.n	800094e <fill_bench_buffer+0xa>
        g_bench_buffer[i] = (uint8_t)(i & 0xFFu);
 8000948:	4a03      	ldr	r2, [pc, #12]	@ (8000958 <fill_bench_buffer+0x14>)
 800094a:	54d3      	strb	r3, [r2, r3]
    for (i = 0u; i < BENCH_BUFFER_SIZE; i++) {
 800094c:	3301      	adds	r3, #1
 800094e:	f5b3 5f80 	cmp.w	r3, #4096	@ 0x1000
 8000952:	d3f9      	bcc.n	8000948 <fill_bench_buffer+0x4>
    }
}
 8000954:	4770      	bx	lr
 8000956:	bf00      	nop
 8000958:	20000008 	.word	0x20000008

0800095c <system_clock_config>:
{
 800095c:	b508      	push	{r3, lr}
    RCC->CR |= RCC_CR_HSION;
 800095e:	4a1c      	ldr	r2, [pc, #112]	@ (80009d0 <system_clock_config+0x74>)
 8000960:	6813      	ldr	r3, [r2, #0]
 8000962:	f043 0301 	orr.w	r3, r3, #1
 8000966:	6013      	str	r3, [r2, #0]
    while ((RCC->CR & RCC_CR_HSIRDY) == 0u) {
 8000968:	4b19      	ldr	r3, [pc, #100]	@ (80009d0 <system_clock_config+0x74>)
 800096a:	681b      	ldr	r3, [r3, #0]
 800096c:	f013 0f02 	tst.w	r3, #2
 8000970:	d0fa      	beq.n	8000968 <system_clock_config+0xc>
    FLASH->ACR = FLASH_ACR_PRFTBE | FLASH_ACR_LATENCY_2;
 8000972:	4b18      	ldr	r3, [pc, #96]	@ (80009d4 <system_clock_config+0x78>)
 8000974:	2214      	movs	r2, #20
 8000976:	601a      	str	r2, [r3, #0]
    RCC->CFGR &= ~(RCC_CFGR_HPRE |
 8000978:	f5a3 5380 	sub.w	r3, r3, #4096	@ 0x1000
 800097c:	6859      	ldr	r1, [r3, #4]
 800097e:	f5a2 127d 	sub.w	r2, r2, #4145152	@ 0x3f4000
 8000982:	3a08      	subs	r2, #8
 8000984:	400a      	ands	r2, r1
 8000986:	605a      	str	r2, [r3, #4]
    RCC->CFGR |= RCC_CFGR_HPRE_DIV1 |
 8000988:	685a      	ldr	r2, [r3, #4]
 800098a:	f442 1260 	orr.w	r2, r2, #3670016	@ 0x380000
 800098e:	f442 6280 	orr.w	r2, r2, #1024	@ 0x400
 8000992:	605a      	str	r2, [r3, #4]
    RCC->CR &= ~RCC_CR_PLLON;
 8000994:	681a      	ldr	r2, [r3, #0]
 8000996:	f022 7280 	bic.w	r2, r2, #16777216	@ 0x1000000
 800099a:	601a      	str	r2, [r3, #0]
    RCC->CR |= RCC_CR_PLLON;
 800099c:	681a      	ldr	r2, [r3, #0]
 800099e:	f042 7280 	orr.w	r2, r2, #16777216	@ 0x1000000
 80009a2:	601a      	str	r2, [r3, #0]
    while ((RCC->CR & RCC_CR_PLLRDY) == 0u) {
 80009a4:	4b0a      	ldr	r3, [pc, #40]	@ (80009d0 <system_clock_config+0x74>)
 80009a6:	681b      	ldr	r3, [r3, #0]
 80009a8:	f013 7f00 	tst.w	r3, #33554432	@ 0x2000000
 80009ac:	d0fa      	beq.n	80009a4 <system_clock_config+0x48>
    RCC->CFGR = (RCC->CFGR & ~RCC_CFGR_SW) | RCC_CFGR_SW_PLL;
 80009ae:	4a08      	ldr	r2, [pc, #32]	@ (80009d0 <system_clock_config+0x74>)
 80009b0:	6853      	ldr	r3, [r2, #4]
 80009b2:	f023 0303 	bic.w	r3, r3, #3
 80009b6:	f043 0302 	orr.w	r3, r3, #2
 80009ba:	6053      	str	r3, [r2, #4]
    while ((RCC->CFGR & RCC_CFGR_SWS) != RCC_CFGR_SWS_PLL) {
 80009bc:	4b04      	ldr	r3, [pc, #16]	@ (80009d0 <system_clock_config+0x74>)
 80009be:	685b      	ldr	r3, [r3, #4]
 80009c0:	f003 030c 	and.w	r3, r3, #12
 80009c4:	2b08      	cmp	r3, #8
 80009c6:	d1f9      	bne.n	80009bc <system_clock_config+0x60>
    SystemCoreClockUpdate();
 80009c8:	f001 fc12 	bl	80021f0 <SystemCoreClockUpdate>
}
 80009cc:	bd08      	pop	{r3, pc}
 80009ce:	bf00      	nop
 80009d0:	40021000 	.word	0x40021000
 80009d4:	40022000 	.word	0x40022000

080009d8 <fatfs_write_benchmark>:

static void fatfs_write_benchmark(void)
{
 80009d8:	e92d 4ff0 	stmdb	sp!, {r4, r5, r6, r7, r8, r9, sl, fp, lr}
 80009dc:	b08d      	sub	sp, #52	@ 0x34
    FIL file;
    FRESULT fr;
    UINT bytes_written = 0u;
 80009de:	2300      	movs	r3, #0
 80009e0:	9301      	str	r3, [sp, #4]
    uint32_t t2;
    uint32_t chunk_size = BENCH_BUFFER_SIZE;
    uint32_t write_rate_x10;
    uint32_t total_rate_x10;

    fill_bench_buffer();
 80009e2:	f7ff ffaf 	bl	8000944 <fill_bench_buffer>

    usart1_puts("bench: file=");
 80009e6:	487a      	ldr	r0, [pc, #488]	@ (8000bd0 <fatfs_write_benchmark+0x1f8>)
 80009e8:	f7ff fb94 	bl	8000114 <usart1_puts>
    usart1_puts(BENCH_FILE_PATH);
 80009ec:	4c79      	ldr	r4, [pc, #484]	@ (8000bd4 <fatfs_write_benchmark+0x1fc>)
 80009ee:	4620      	mov	r0, r4
 80009f0:	f7ff fb90 	bl	8000114 <usart1_puts>
    usart1_puts(" bytes=");
 80009f4:	4878      	ldr	r0, [pc, #480]	@ (8000bd8 <fatfs_write_benchmark+0x200>)
 80009f6:	f7ff fb8d 	bl	8000114 <usart1_puts>
    usart1_put_dec_u32(BENCH_TOTAL_BYTES);
 80009fa:	f44f 2080 	mov.w	r0, #262144	@ 0x40000
 80009fe:	f7ff fbb5 	bl	800016c <usart1_put_dec_u32>
    usart1_puts(" chunk=");
 8000a02:	4876      	ldr	r0, [pc, #472]	@ (8000bdc <fatfs_write_benchmark+0x204>)
 8000a04:	f7ff fb86 	bl	8000114 <usart1_puts>
    usart1_put_dec_u32(BENCH_BUFFER_SIZE);
 8000a08:	f44f 5080 	mov.w	r0, #4096	@ 0x1000
 8000a0c:	f7ff fbae 	bl	800016c <usart1_put_dec_u32>
    usart1_puts(" spi_prescaler=/");
 8000a10:	4873      	ldr	r0, [pc, #460]	@ (8000be0 <fatfs_write_benchmark+0x208>)
 8000a12:	f7ff fb7f 	bl	8000114 <usart1_puts>
    usart1_put_dec_u32(SD_SPI_BENCH_DIV);
 8000a16:	2040      	movs	r0, #64	@ 0x40
 8000a18:	f7ff fba8 	bl	800016c <usart1_put_dec_u32>
    usart1_puts(" spi_hz=");
 8000a1c:	4871      	ldr	r0, [pc, #452]	@ (8000be4 <fatfs_write_benchmark+0x20c>)
 8000a1e:	f7ff fb79 	bl	8000114 <usart1_puts>
    usart1_put_dec_u32(SD_SPI_BENCH_HZ);
 8000a22:	4b71      	ldr	r3, [pc, #452]	@ (8000be8 <fatfs_write_benchmark+0x210>)
 8000a24:	6818      	ldr	r0, [r3, #0]
 8000a26:	0980      	lsrs	r0, r0, #6
 8000a28:	f7ff fba0 	bl	800016c <usart1_put_dec_u32>
    usart1_puts("\r\n");
 8000a2c:	4d6f      	ldr	r5, [pc, #444]	@ (8000bec <fatfs_write_benchmark+0x214>)
 8000a2e:	4628      	mov	r0, r5
 8000a30:	f7ff fb70 	bl	8000114 <usart1_puts>

    fr = f_open(&file, BENCH_FILE_PATH, FA_WRITE | FA_CREATE_ALWAYS);
 8000a34:	220a      	movs	r2, #10
 8000a36:	4621      	mov	r1, r4
 8000a38:	a802      	add	r0, sp, #8
 8000a3a:	f001 f997 	bl	8001d6c <f_open>
 8000a3e:	4604      	mov	r4, r0
    usart1_puts("bench: f_open -> ");
 8000a40:	486b      	ldr	r0, [pc, #428]	@ (8000bf0 <fatfs_write_benchmark+0x218>)
 8000a42:	f7ff fb67 	bl	8000114 <usart1_puts>
    usart1_put_dec_u32((uint32_t)fr);
 8000a46:	4620      	mov	r0, r4
 8000a48:	f7ff fb90 	bl	800016c <usart1_put_dec_u32>
    usart1_puts("\r\n");
 8000a4c:	4628      	mov	r0, r5
 8000a4e:	f7ff fb61 	bl	8000114 <usart1_puts>
    if (fr != FR_OK) {
 8000a52:	b9b4      	cbnz	r4, 8000a82 <fatfs_write_benchmark+0xaa>
        return;
    }

    t0 = g_ms_ticks;
 8000a54:	4b67      	ldr	r3, [pc, #412]	@ (8000bf4 <fatfs_write_benchmark+0x21c>)
 8000a56:	f8d3 8000 	ldr.w	r8, [r3]
    uint32_t chunk_size = BENCH_BUFFER_SIZE;
 8000a5a:	f44f 5580 	mov.w	r5, #4096	@ 0x1000
    uint32_t next_progress = BENCH_PROGRESS_BYTES;
 8000a5e:	f44f 5700 	mov.w	r7, #8192	@ 0x2000
    uint32_t bytes_total = 0u;
 8000a62:	2600      	movs	r6, #0
    uint32_t bytes_remaining = BENCH_TOTAL_BYTES;
 8000a64:	f44f 2480 	mov.w	r4, #262144	@ 0x40000
    while (bytes_remaining > 0u) {
 8000a68:	e02f      	b.n	8000aca <fatfs_write_benchmark+0xf2>
            chunk_size = bytes_remaining;
        }

        fr = f_write(&file, g_bench_buffer, (UINT)chunk_size, &bytes_written);
        if (fr != FR_OK) {
            usart1_puts("bench: f_write -> ");
 8000a6a:	4863      	ldr	r0, [pc, #396]	@ (8000bf8 <fatfs_write_benchmark+0x220>)
 8000a6c:	f7ff fb52 	bl	8000114 <usart1_puts>
            usart1_put_dec_u32((uint32_t)fr);
 8000a70:	4648      	mov	r0, r9
 8000a72:	f7ff fb7b 	bl	800016c <usart1_put_dec_u32>
            usart1_puts("\r\n");
 8000a76:	485d      	ldr	r0, [pc, #372]	@ (8000bec <fatfs_write_benchmark+0x214>)
 8000a78:	f7ff fb4c 	bl	8000114 <usart1_puts>
            f_close(&file);
 8000a7c:	a802      	add	r0, sp, #8
 8000a7e:	f001 fb81 	bl	8002184 <f_close>
    usart1_puts("bench: write_rate_kBps=");
    usart1_put_dec_tenths_u32(write_rate_x10);
    usart1_puts(" total_rate_kBps=");
    usart1_put_dec_tenths_u32(total_rate_x10);
    usart1_puts("\r\n");
}
 8000a82:	b00d      	add	sp, #52	@ 0x34
 8000a84:	e8bd 8ff0 	ldmia.w	sp!, {r4, r5, r6, r7, r8, r9, sl, fp, pc}
            usart1_puts("bench: short write bytes=");
 8000a88:	485c      	ldr	r0, [pc, #368]	@ (8000bfc <fatfs_write_benchmark+0x224>)
 8000a8a:	f7ff fb43 	bl	8000114 <usart1_puts>
            usart1_put_dec_u32((uint32_t)bytes_written);
 8000a8e:	9801      	ldr	r0, [sp, #4]
 8000a90:	f7ff fb6c 	bl	800016c <usart1_put_dec_u32>
            usart1_puts("\r\n");
 8000a94:	4855      	ldr	r0, [pc, #340]	@ (8000bec <fatfs_write_benchmark+0x214>)
 8000a96:	f7ff fb3d 	bl	8000114 <usart1_puts>
            f_close(&file);
 8000a9a:	a802      	add	r0, sp, #8
 8000a9c:	f001 fb72 	bl	8002184 <f_close>
            return;
 8000aa0:	e7ef      	b.n	8000a82 <fatfs_write_benchmark+0xaa>
            usart1_puts("bench: progress_bytes=");
 8000aa2:	4857      	ldr	r0, [pc, #348]	@ (8000c00 <fatfs_write_benchmark+0x228>)
 8000aa4:	f7ff fb36 	bl	8000114 <usart1_puts>
            usart1_put_dec_u32(bytes_total);
 8000aa8:	4630      	mov	r0, r6
 8000aaa:	f7ff fb5f 	bl	800016c <usart1_put_dec_u32>
            usart1_puts(" elapsed_ms=");
 8000aae:	4855      	ldr	r0, [pc, #340]	@ (8000c04 <fatfs_write_benchmark+0x22c>)
 8000ab0:	f7ff fb30 	bl	8000114 <usart1_puts>
            usart1_put_dec_u32(g_ms_ticks - t0);
 8000ab4:	4b4f      	ldr	r3, [pc, #316]	@ (8000bf4 <fatfs_write_benchmark+0x21c>)
 8000ab6:	6818      	ldr	r0, [r3, #0]
 8000ab8:	eba0 0008 	sub.w	r0, r0, r8
 8000abc:	f7ff fb56 	bl	800016c <usart1_put_dec_u32>
            usart1_puts("\r\n");
 8000ac0:	484a      	ldr	r0, [pc, #296]	@ (8000bec <fatfs_write_benchmark+0x214>)
 8000ac2:	f7ff fb27 	bl	8000114 <usart1_puts>
            next_progress += BENCH_PROGRESS_BYTES;
 8000ac6:	f507 5700 	add.w	r7, r7, #8192	@ 0x2000
    while (bytes_remaining > 0u) {
 8000aca:	b1ac      	cbz	r4, 8000af8 <fatfs_write_benchmark+0x120>
        if (chunk_size > bytes_remaining) {
 8000acc:	42ac      	cmp	r4, r5
 8000ace:	d200      	bcs.n	8000ad2 <fatfs_write_benchmark+0xfa>
            chunk_size = bytes_remaining;
 8000ad0:	4625      	mov	r5, r4
        fr = f_write(&file, g_bench_buffer, (UINT)chunk_size, &bytes_written);
 8000ad2:	ab01      	add	r3, sp, #4
 8000ad4:	462a      	mov	r2, r5
 8000ad6:	494c      	ldr	r1, [pc, #304]	@ (8000c08 <fatfs_write_benchmark+0x230>)
 8000ad8:	a802      	add	r0, sp, #8
 8000ada:	f001 fa2d 	bl	8001f38 <f_write>
        if (fr != FR_OK) {
 8000ade:	4681      	mov	r9, r0
 8000ae0:	2800      	cmp	r0, #0
 8000ae2:	d1c2      	bne.n	8000a6a <fatfs_write_benchmark+0x92>
        if (bytes_written != chunk_size) {
 8000ae4:	9b01      	ldr	r3, [sp, #4]
 8000ae6:	42ab      	cmp	r3, r5
 8000ae8:	d1ce      	bne.n	8000a88 <fatfs_write_benchmark+0xb0>
        bytes_total += bytes_written;
 8000aea:	441e      	add	r6, r3
        bytes_remaining -= bytes_written;
 8000aec:	1ae4      	subs	r4, r4, r3
        if (bytes_total >= next_progress || bytes_remaining == 0u) {
 8000aee:	42b7      	cmp	r7, r6
 8000af0:	d9d7      	bls.n	8000aa2 <fatfs_write_benchmark+0xca>
 8000af2:	2c00      	cmp	r4, #0
 8000af4:	d1e9      	bne.n	8000aca <fatfs_write_benchmark+0xf2>
 8000af6:	e7d4      	b.n	8000aa2 <fatfs_write_benchmark+0xca>
    t1 = g_ms_ticks;
 8000af8:	4b3e      	ldr	r3, [pc, #248]	@ (8000bf4 <fatfs_write_benchmark+0x21c>)
 8000afa:	681f      	ldr	r7, [r3, #0]
    fr = f_sync(&file);
 8000afc:	a802      	add	r0, sp, #8
 8000afe:	f001 fb09 	bl	8002114 <f_sync>
 8000b02:	4605      	mov	r5, r0
    usart1_puts("bench: f_sync -> ");
 8000b04:	4841      	ldr	r0, [pc, #260]	@ (8000c0c <fatfs_write_benchmark+0x234>)
 8000b06:	f7ff fb05 	bl	8000114 <usart1_puts>
    usart1_put_dec_u32((uint32_t)fr);
 8000b0a:	4628      	mov	r0, r5
 8000b0c:	f7ff fb2e 	bl	800016c <usart1_put_dec_u32>
    usart1_puts("\r\n");
 8000b10:	4836      	ldr	r0, [pc, #216]	@ (8000bec <fatfs_write_benchmark+0x214>)
 8000b12:	f7ff faff 	bl	8000114 <usart1_puts>
    if (fr != FR_OK) {
 8000b16:	2d00      	cmp	r5, #0
 8000b18:	d153      	bne.n	8000bc2 <fatfs_write_benchmark+0x1ea>
    fr = f_close(&file);
 8000b1a:	a802      	add	r0, sp, #8
 8000b1c:	f001 fb32 	bl	8002184 <f_close>
 8000b20:	4605      	mov	r5, r0
    usart1_puts("bench: f_close -> ");
 8000b22:	483b      	ldr	r0, [pc, #236]	@ (8000c10 <fatfs_write_benchmark+0x238>)
 8000b24:	f7ff faf6 	bl	8000114 <usart1_puts>
    usart1_put_dec_u32((uint32_t)fr);
 8000b28:	4628      	mov	r0, r5
 8000b2a:	f7ff fb1f 	bl	800016c <usart1_put_dec_u32>
    usart1_puts("\r\n");
 8000b2e:	482f      	ldr	r0, [pc, #188]	@ (8000bec <fatfs_write_benchmark+0x214>)
 8000b30:	f7ff faf0 	bl	8000114 <usart1_puts>
    if (fr != FR_OK) {
 8000b34:	2d00      	cmp	r5, #0
 8000b36:	d1a4      	bne.n	8000a82 <fatfs_write_benchmark+0xaa>
    t2 = g_ms_ticks;
 8000b38:	4b2e      	ldr	r3, [pc, #184]	@ (8000bf4 <fatfs_write_benchmark+0x21c>)
 8000b3a:	f8d3 a000 	ldr.w	sl, [r3]
    usart1_puts("bench: bytes_written=");
 8000b3e:	4835      	ldr	r0, [pc, #212]	@ (8000c14 <fatfs_write_benchmark+0x23c>)
 8000b40:	f7ff fae8 	bl	8000114 <usart1_puts>
    usart1_put_dec_u32(bytes_total);
 8000b44:	4630      	mov	r0, r6
 8000b46:	f7ff fb11 	bl	800016c <usart1_put_dec_u32>
    usart1_puts("\r\n");
 8000b4a:	4d28      	ldr	r5, [pc, #160]	@ (8000bec <fatfs_write_benchmark+0x214>)
 8000b4c:	4628      	mov	r0, r5
 8000b4e:	f7ff fae1 	bl	8000114 <usart1_puts>
    usart1_puts("bench: write_ms=");
 8000b52:	4831      	ldr	r0, [pc, #196]	@ (8000c18 <fatfs_write_benchmark+0x240>)
 8000b54:	f7ff fade 	bl	8000114 <usart1_puts>
    usart1_put_dec_u32(t1 - t0);
 8000b58:	eba7 0b08 	sub.w	fp, r7, r8
 8000b5c:	4658      	mov	r0, fp
 8000b5e:	f7ff fb05 	bl	800016c <usart1_put_dec_u32>
    usart1_puts(" sync_close_ms=");
 8000b62:	482e      	ldr	r0, [pc, #184]	@ (8000c1c <fatfs_write_benchmark+0x244>)
 8000b64:	f7ff fad6 	bl	8000114 <usart1_puts>
    usart1_put_dec_u32(t2 - t1);
 8000b68:	ebaa 0007 	sub.w	r0, sl, r7
 8000b6c:	f7ff fafe 	bl	800016c <usart1_put_dec_u32>
    usart1_puts(" total_ms=");
 8000b70:	482b      	ldr	r0, [pc, #172]	@ (8000c20 <fatfs_write_benchmark+0x248>)
 8000b72:	f7ff facf 	bl	8000114 <usart1_puts>
    usart1_put_dec_u32(t2 - t0);
 8000b76:	ebaa 0908 	sub.w	r9, sl, r8
 8000b7a:	4648      	mov	r0, r9
 8000b7c:	f7ff faf6 	bl	800016c <usart1_put_dec_u32>
    usart1_puts("\r\n");
 8000b80:	4628      	mov	r0, r5
 8000b82:	f7ff fac7 	bl	8000114 <usart1_puts>
    if ((t1 - t0) == 0u) {
 8000b86:	45b8      	cmp	r8, r7
 8000b88:	d01f      	beq.n	8000bca <fatfs_write_benchmark+0x1f2>
        write_rate_x10 = (bytes_total * 10u) / (t1 - t0);
 8000b8a:	250a      	movs	r5, #10
 8000b8c:	fb06 f505 	mul.w	r5, r6, r5
 8000b90:	fbb5 f5fb 	udiv	r5, r5, fp
    if ((t2 - t0) == 0u) {
 8000b94:	45d0      	cmp	r8, sl
 8000b96:	d004      	beq.n	8000ba2 <fatfs_write_benchmark+0x1ca>
        total_rate_x10 = (bytes_total * 10u) / (t2 - t0);
 8000b98:	230a      	movs	r3, #10
 8000b9a:	fb03 f606 	mul.w	r6, r3, r6
 8000b9e:	fbb6 f4f9 	udiv	r4, r6, r9
    usart1_puts("bench: write_rate_kBps=");
 8000ba2:	4820      	ldr	r0, [pc, #128]	@ (8000c24 <fatfs_write_benchmark+0x24c>)
 8000ba4:	f7ff fab6 	bl	8000114 <usart1_puts>
    usart1_put_dec_tenths_u32(write_rate_x10);
 8000ba8:	4628      	mov	r0, r5
 8000baa:	f7ff fb0b 	bl	80001c4 <usart1_put_dec_tenths_u32>
    usart1_puts(" total_rate_kBps=");
 8000bae:	481e      	ldr	r0, [pc, #120]	@ (8000c28 <fatfs_write_benchmark+0x250>)
 8000bb0:	f7ff fab0 	bl	8000114 <usart1_puts>
    usart1_put_dec_tenths_u32(total_rate_x10);
 8000bb4:	4620      	mov	r0, r4
 8000bb6:	f7ff fb05 	bl	80001c4 <usart1_put_dec_tenths_u32>
    usart1_puts("\r\n");
 8000bba:	480c      	ldr	r0, [pc, #48]	@ (8000bec <fatfs_write_benchmark+0x214>)
 8000bbc:	f7ff faaa 	bl	8000114 <usart1_puts>
 8000bc0:	e75f      	b.n	8000a82 <fatfs_write_benchmark+0xaa>
        f_close(&file);
 8000bc2:	a802      	add	r0, sp, #8
 8000bc4:	f001 fade 	bl	8002184 <f_close>
        return;
 8000bc8:	e75b      	b.n	8000a82 <fatfs_write_benchmark+0xaa>
        write_rate_x10 = 0u;
 8000bca:	4625      	mov	r5, r4
 8000bcc:	e7e2      	b.n	8000b94 <fatfs_write_benchmark+0x1bc>
 8000bce:	bf00      	nop
 8000bd0:	08002600 	.word	0x08002600
 8000bd4:	08002610 	.word	0x08002610
 8000bd8:	08002620 	.word	0x08002620
 8000bdc:	08002628 	.word	0x08002628
 8000be0:	08002630 	.word	0x08002630
 8000be4:	08002644 	.word	0x08002644
 8000be8:	20000004 	.word	0x20000004
 8000bec:	08002570 	.word	0x08002570
 8000bf0:	08002650 	.word	0x08002650
 8000bf4:	20001010 	.word	0x20001010
 8000bf8:	08002664 	.word	0x08002664
 8000bfc:	08002678 	.word	0x08002678
 8000c00:	08002694 	.word	0x08002694
 8000c04:	080026ac 	.word	0x080026ac
 8000c08:	20000008 	.word	0x20000008
 8000c0c:	080026bc 	.word	0x080026bc
 8000c10:	080026d0 	.word	0x080026d0
 8000c14:	080026e4 	.word	0x080026e4
 8000c18:	080026fc 	.word	0x080026fc
 8000c1c:	08002710 	.word	0x08002710
 8000c20:	08002720 	.word	0x08002720
 8000c24:	0800272c 	.word	0x0800272c
 8000c28:	08002744 	.word	0x08002744

08000c2c <SysTick_Handler>:
    g_ms_ticks++;
 8000c2c:	4a02      	ldr	r2, [pc, #8]	@ (8000c38 <SysTick_Handler+0xc>)
 8000c2e:	6813      	ldr	r3, [r2, #0]
 8000c30:	3301      	adds	r3, #1
 8000c32:	6013      	str	r3, [r2, #0]
}
 8000c34:	4770      	bx	lr
 8000c36:	bf00      	nop
 8000c38:	20001010 	.word	0x20001010

08000c3c <disk_initialize>:
    if (pdrv != 0u) {
 8000c3c:	b998      	cbnz	r0, 8000c66 <disk_initialize+0x2a>
{
 8000c3e:	b508      	push	{r3, lr}
    if ((g_disk_status & STA_NOINIT) == 0u) {
 8000c40:	4b0a      	ldr	r3, [pc, #40]	@ (8000c6c <disk_initialize+0x30>)
 8000c42:	7818      	ldrb	r0, [r3, #0]
 8000c44:	f010 0f01 	tst.w	r0, #1
 8000c48:	d100      	bne.n	8000c4c <disk_initialize+0x10>
}
 8000c4a:	bd08      	pop	{r3, pc}
    if (sd_card_init()) {
 8000c4c:	f7ff fd3e 	bl	80006cc <sd_card_init>
 8000c50:	b128      	cbz	r0, 8000c5e <disk_initialize+0x22>
        g_disk_status = 0u;
 8000c52:	4b06      	ldr	r3, [pc, #24]	@ (8000c6c <disk_initialize+0x30>)
 8000c54:	2200      	movs	r2, #0
 8000c56:	701a      	strb	r2, [r3, #0]
    return g_disk_status;
 8000c58:	4b04      	ldr	r3, [pc, #16]	@ (8000c6c <disk_initialize+0x30>)
 8000c5a:	7818      	ldrb	r0, [r3, #0]
 8000c5c:	e7f5      	b.n	8000c4a <disk_initialize+0xe>
        g_disk_status = STA_NOINIT;
 8000c5e:	4b03      	ldr	r3, [pc, #12]	@ (8000c6c <disk_initialize+0x30>)
 8000c60:	2201      	movs	r2, #1
 8000c62:	701a      	strb	r2, [r3, #0]
 8000c64:	e7f8      	b.n	8000c58 <disk_initialize+0x1c>
        return STA_NOINIT;
 8000c66:	2001      	movs	r0, #1
}
 8000c68:	4770      	bx	lr
 8000c6a:	bf00      	nop
 8000c6c:	20000000 	.word	0x20000000

08000c70 <disk_status>:
    if (pdrv != 0u) {
 8000c70:	b910      	cbnz	r0, 8000c78 <disk_status+0x8>
    return g_disk_status;
 8000c72:	4b02      	ldr	r3, [pc, #8]	@ (8000c7c <disk_status+0xc>)
 8000c74:	7818      	ldrb	r0, [r3, #0]
 8000c76:	4770      	bx	lr
        return STA_NOINIT;
 8000c78:	2001      	movs	r0, #1
}
 8000c7a:	4770      	bx	lr
 8000c7c:	20000000 	.word	0x20000000

08000c80 <disk_read>:
{
 8000c80:	e92d 41f0 	stmdb	sp!, {r4, r5, r6, r7, r8, lr}
    if (pdrv != 0u || count == 0u) {
 8000c84:	b9a0      	cbnz	r0, 8000cb0 <disk_read+0x30>
 8000c86:	460e      	mov	r6, r1
 8000c88:	4617      	mov	r7, r2
 8000c8a:	461d      	mov	r5, r3
 8000c8c:	b19b      	cbz	r3, 8000cb6 <disk_read+0x36>
    if ((g_disk_status & STA_NOINIT) != 0u) {
 8000c8e:	4b0f      	ldr	r3, [pc, #60]	@ (8000ccc <disk_read+0x4c>)
 8000c90:	f893 8000 	ldrb.w	r8, [r3]
 8000c94:	f018 0801 	ands.w	r8, r8, #1
 8000c98:	d110      	bne.n	8000cbc <disk_read+0x3c>
    for (i = 0u; i < count; i++) {
 8000c9a:	2400      	movs	r4, #0
 8000c9c:	42ac      	cmp	r4, r5
 8000c9e:	d212      	bcs.n	8000cc6 <disk_read+0x46>
        if (!sd_read_block((uint32_t)sector + i, buff + ((uint32_t)i * SD_SECTOR_SIZE))) {
 8000ca0:	eb06 2144 	add.w	r1, r6, r4, lsl #9
 8000ca4:	19e0      	adds	r0, r4, r7
 8000ca6:	f7ff fc4f 	bl	8000548 <sd_read_block>
 8000caa:	b150      	cbz	r0, 8000cc2 <disk_read+0x42>
    for (i = 0u; i < count; i++) {
 8000cac:	3401      	adds	r4, #1
 8000cae:	e7f5      	b.n	8000c9c <disk_read+0x1c>
        return RES_PARERR;
 8000cb0:	f04f 0804 	mov.w	r8, #4
 8000cb4:	e007      	b.n	8000cc6 <disk_read+0x46>
 8000cb6:	f04f 0804 	mov.w	r8, #4
 8000cba:	e004      	b.n	8000cc6 <disk_read+0x46>
        return RES_NOTRDY;
 8000cbc:	f04f 0803 	mov.w	r8, #3
 8000cc0:	e001      	b.n	8000cc6 <disk_read+0x46>
            return RES_ERROR;
 8000cc2:	f04f 0801 	mov.w	r8, #1
}
 8000cc6:	4640      	mov	r0, r8
 8000cc8:	e8bd 81f0 	ldmia.w	sp!, {r4, r5, r6, r7, r8, pc}
 8000ccc:	20000000 	.word	0x20000000

08000cd0 <disk_write>:
{
 8000cd0:	e92d 41f0 	stmdb	sp!, {r4, r5, r6, r7, r8, lr}
    if (pdrv != 0u || count == 0u) {
 8000cd4:	b9d8      	cbnz	r0, 8000d0e <disk_write+0x3e>
 8000cd6:	460e      	mov	r6, r1
 8000cd8:	4617      	mov	r7, r2
 8000cda:	461d      	mov	r5, r3
 8000cdc:	b1e3      	cbz	r3, 8000d18 <disk_write+0x48>
    if ((g_disk_status & STA_NOINIT) != 0u) {
 8000cde:	4b13      	ldr	r3, [pc, #76]	@ (8000d2c <disk_write+0x5c>)
 8000ce0:	f893 8000 	ldrb.w	r8, [r3]
 8000ce4:	f018 0f01 	tst.w	r8, #1
 8000ce8:	d119      	bne.n	8000d1e <disk_write+0x4e>
    if ((g_disk_status & STA_PROTECT) != 0u) {
 8000cea:	f018 0804 	ands.w	r8, r8, #4
 8000cee:	d119      	bne.n	8000d24 <disk_write+0x54>
    for (i = 0u; i < count; i++) {
 8000cf0:	2400      	movs	r4, #0
 8000cf2:	e000      	b.n	8000cf6 <disk_write+0x26>
 8000cf4:	3401      	adds	r4, #1
 8000cf6:	42ac      	cmp	r4, r5
 8000cf8:	d20b      	bcs.n	8000d12 <disk_write+0x42>
        if (!sd_write_block((uint32_t)sector + i, buff + ((uint32_t)i * SD_SECTOR_SIZE))) {
 8000cfa:	eb06 2144 	add.w	r1, r6, r4, lsl #9
 8000cfe:	19e0      	adds	r0, r4, r7
 8000d00:	f7ff fc74 	bl	80005ec <sd_write_block>
 8000d04:	2800      	cmp	r0, #0
 8000d06:	d1f5      	bne.n	8000cf4 <disk_write+0x24>
            return RES_ERROR;
 8000d08:	f04f 0801 	mov.w	r8, #1
 8000d0c:	e001      	b.n	8000d12 <disk_write+0x42>
        return RES_PARERR;
 8000d0e:	f04f 0804 	mov.w	r8, #4
}
 8000d12:	4640      	mov	r0, r8
 8000d14:	e8bd 81f0 	ldmia.w	sp!, {r4, r5, r6, r7, r8, pc}
        return RES_PARERR;
 8000d18:	f04f 0804 	mov.w	r8, #4
 8000d1c:	e7f9      	b.n	8000d12 <disk_write+0x42>
        return RES_NOTRDY;
 8000d1e:	f04f 0803 	mov.w	r8, #3
 8000d22:	e7f6      	b.n	8000d12 <disk_write+0x42>
        return RES_WRPRT;
 8000d24:	f04f 0802 	mov.w	r8, #2
 8000d28:	e7f3      	b.n	8000d12 <disk_write+0x42>
 8000d2a:	bf00      	nop
 8000d2c:	20000000 	.word	0x20000000

08000d30 <disk_ioctl>:
    if (pdrv != 0u) {
 8000d30:	bb60      	cbnz	r0, 8000d8c <disk_ioctl+0x5c>
{
 8000d32:	b510      	push	{r4, lr}
 8000d34:	460c      	mov	r4, r1
    if ((g_disk_status & STA_NOINIT) != 0u) {
 8000d36:	4b18      	ldr	r3, [pc, #96]	@ (8000d98 <disk_ioctl+0x68>)
 8000d38:	7818      	ldrb	r0, [r3, #0]
 8000d3a:	f010 0001 	ands.w	r0, r0, #1
 8000d3e:	d127      	bne.n	8000d90 <disk_ioctl+0x60>
    switch (cmd) {
 8000d40:	2903      	cmp	r1, #3
 8000d42:	d827      	bhi.n	8000d94 <disk_ioctl+0x64>
 8000d44:	e8df f001 	tbb	[pc, r1]
 8000d48:	1f1b1702 	.word	0x1f1b1702
        sd_deselect();
 8000d4c:	f7ff faf4 	bl	8000338 <sd_deselect>
        if (!sd_select()) {
 8000d50:	f7ff fb0c 	bl	800036c <sd_select>
 8000d54:	b138      	cbz	r0, 8000d66 <disk_ioctl+0x36>
        if (!sd_wait_ready(200000u)) {
 8000d56:	4811      	ldr	r0, [pc, #68]	@ (8000d9c <disk_ioctl+0x6c>)
 8000d58:	f7ff faf8 	bl	800034c <sd_wait_ready>
 8000d5c:	b138      	cbz	r0, 8000d6e <disk_ioctl+0x3e>
        sd_deselect();
 8000d5e:	f7ff faeb 	bl	8000338 <sd_deselect>
        return RES_OK;
 8000d62:	4620      	mov	r0, r4
 8000d64:	e015      	b.n	8000d92 <disk_ioctl+0x62>
            sd_deselect();
 8000d66:	f7ff fae7 	bl	8000338 <sd_deselect>
            return RES_NOTRDY;
 8000d6a:	2003      	movs	r0, #3
 8000d6c:	e011      	b.n	8000d92 <disk_ioctl+0x62>
            sd_deselect();
 8000d6e:	f7ff fae3 	bl	8000338 <sd_deselect>
            return RES_ERROR;
 8000d72:	2001      	movs	r0, #1
 8000d74:	e00d      	b.n	8000d92 <disk_ioctl+0x62>
        *(LBA_t *)buff = (LBA_t)g_sd_sector_count;
 8000d76:	4b0a      	ldr	r3, [pc, #40]	@ (8000da0 <disk_ioctl+0x70>)
 8000d78:	681b      	ldr	r3, [r3, #0]
 8000d7a:	6013      	str	r3, [r2, #0]
        return RES_OK;
 8000d7c:	e009      	b.n	8000d92 <disk_ioctl+0x62>
        *(WORD *)buff = SD_SECTOR_SIZE;
 8000d7e:	f44f 7300 	mov.w	r3, #512	@ 0x200
 8000d82:	8013      	strh	r3, [r2, #0]
        return RES_OK;
 8000d84:	e005      	b.n	8000d92 <disk_ioctl+0x62>
        *(DWORD *)buff = 1u;
 8000d86:	2301      	movs	r3, #1
 8000d88:	6013      	str	r3, [r2, #0]
        return RES_OK;
 8000d8a:	e002      	b.n	8000d92 <disk_ioctl+0x62>
        return RES_PARERR;
 8000d8c:	2004      	movs	r0, #4
}
 8000d8e:	4770      	bx	lr
        return RES_NOTRDY;
 8000d90:	2003      	movs	r0, #3
}
 8000d92:	bd10      	pop	{r4, pc}
    switch (cmd) {
 8000d94:	2004      	movs	r0, #4
 8000d96:	e7fc      	b.n	8000d92 <disk_ioctl+0x62>
 8000d98:	20000000 	.word	0x20000000
 8000d9c:	00030d40 	.word	0x00030d40
 8000da0:	20001008 	.word	0x20001008

08000da4 <main>:

int main(void)
{
 8000da4:	b530      	push	{r4, r5, lr}
 8000da6:	f5ad 7d0d 	sub.w	sp, sp, #564	@ 0x234
    FATFS fs;
    FRESULT fr;

    system_clock_config();
 8000daa:	f7ff fdd7 	bl	800095c <system_clock_config>
    SysTick_Config(SystemCoreClock / 1000u);
 8000dae:	4b40      	ldr	r3, [pc, #256]	@ (8000eb0 <main+0x10c>)
 8000db0:	681b      	ldr	r3, [r3, #0]
 8000db2:	4a40      	ldr	r2, [pc, #256]	@ (8000eb4 <main+0x110>)
 8000db4:	fba2 2303 	umull	r2, r3, r2, r3
 8000db8:	099b      	lsrs	r3, r3, #6
           function <b>SysTick_Config</b> is not included. In this case, the file <b><i>device</i>.h</b>
           must contain a vendor-specific implementation of this function.
 */
__STATIC_INLINE uint32_t SysTick_Config(uint32_t ticks)
{
  if ((ticks - 1UL) > SysTick_LOAD_RELOAD_Msk)
 8000dba:	3b01      	subs	r3, #1
 8000dbc:	f1b3 7f80 	cmp.w	r3, #16777216	@ 0x1000000
 8000dc0:	d20a      	bcs.n	8000dd8 <main+0x34>
  {
    return (1UL);                                                   /* Reload value impossible */
  }

  SysTick->LOAD  = (uint32_t)(ticks - 1UL);                         /* set reload register */
 8000dc2:	f04f 22e0 	mov.w	r2, #3758153728	@ 0xe000e000
 8000dc6:	6153      	str	r3, [r2, #20]
    SCB->SHP[(((uint32_t)IRQn) & 0xFUL)-4UL] = (uint8_t)((priority << (8U - __NVIC_PRIO_BITS)) & (uint32_t)0xFFUL);
 8000dc8:	4b3b      	ldr	r3, [pc, #236]	@ (8000eb8 <main+0x114>)
 8000dca:	21f0      	movs	r1, #240	@ 0xf0
 8000dcc:	f883 1023 	strb.w	r1, [r3, #35]	@ 0x23
  NVIC_SetPriority (SysTick_IRQn, (1UL << __NVIC_PRIO_BITS) - 1UL); /* set Priority for Systick Interrupt */
  SysTick->VAL   = 0UL;                                             /* Load the SysTick Counter Value */
 8000dd0:	2300      	movs	r3, #0
 8000dd2:	6193      	str	r3, [r2, #24]
  SysTick->CTRL  = SysTick_CTRL_CLKSOURCE_Msk |
 8000dd4:	2307      	movs	r3, #7
 8000dd6:	6113      	str	r3, [r2, #16]
    led_init();
 8000dd8:	f7ff fa3c 	bl	8000254 <led_init>
    usart1_init();
 8000ddc:	f7ff fa0a 	bl	80001f4 <usart1_init>
    sd_spi_init();
 8000de0:	f7ff fa6e 	bl	80002c0 <sd_spi_init>

    usart1_puts("\r\nsd_write_bench: STM32F103C8 SPI1 / USART1\r\n");
 8000de4:	4835      	ldr	r0, [pc, #212]	@ (8000ebc <main+0x118>)
 8000de6:	f7ff f995 	bl	8000114 <usart1_puts>
    usart1_puts("sd_write_bench: file-level FatFs write benchmark\r\n");
 8000dea:	4835      	ldr	r0, [pc, #212]	@ (8000ec0 <main+0x11c>)
 8000dec:	f7ff f992 	bl	8000114 <usart1_puts>
    usart1_puts("sd_write_bench: PA4=CS PA5=SCK PA6=MISO PA7=MOSI\r\n");
 8000df0:	4834      	ldr	r0, [pc, #208]	@ (8000ec4 <main+0x120>)
 8000df2:	f7ff f98f 	bl	8000114 <usart1_puts>
    usart1_puts("sd_write_bench: sysclk_hz=");
 8000df6:	4834      	ldr	r0, [pc, #208]	@ (8000ec8 <main+0x124>)
 8000df8:	f7ff f98c 	bl	8000114 <usart1_puts>
    usart1_put_dec_u32(SystemCoreClock);
 8000dfc:	4b2c      	ldr	r3, [pc, #176]	@ (8000eb0 <main+0x10c>)
 8000dfe:	6818      	ldr	r0, [r3, #0]
 8000e00:	f7ff f9b4 	bl	800016c <usart1_put_dec_u32>
    usart1_puts("\r\n");
 8000e04:	4d31      	ldr	r5, [pc, #196]	@ (8000ecc <main+0x128>)
 8000e06:	4628      	mov	r0, r5
 8000e08:	f7ff f984 	bl	8000114 <usart1_puts>
    usart1_puts("sd_write_bench: starting in 1000 ms\r\n");
 8000e0c:	4830      	ldr	r0, [pc, #192]	@ (8000ed0 <main+0x12c>)
 8000e0e:	f7ff f981 	bl	8000114 <usart1_puts>
    delay_ms(1000u);
 8000e12:	f44f 707a 	mov.w	r0, #1000	@ 0x3e8
 8000e16:	f7ff f969 	bl	80000ec <delay_ms>

    led_set(true);
 8000e1a:	2001      	movs	r0, #1
 8000e1c:	f7ff fa30 	bl	8000280 <led_set>

    fr = f_mount(&fs, "0:", 1);
 8000e20:	2201      	movs	r2, #1
 8000e22:	492c      	ldr	r1, [pc, #176]	@ (8000ed4 <main+0x130>)
 8000e24:	4668      	mov	r0, sp
 8000e26:	f000 ff75 	bl	8001d14 <f_mount>
 8000e2a:	4604      	mov	r4, r0
    usart1_puts("bench: f_mount -> ");
 8000e2c:	482a      	ldr	r0, [pc, #168]	@ (8000ed8 <main+0x134>)
 8000e2e:	f7ff f971 	bl	8000114 <usart1_puts>
    usart1_put_dec_u32((uint32_t)fr);
 8000e32:	4620      	mov	r0, r4
 8000e34:	f7ff f99a 	bl	800016c <usart1_put_dec_u32>
    usart1_puts("\r\n");
 8000e38:	4628      	mov	r0, r5
 8000e3a:	f7ff f96b 	bl	8000114 <usart1_puts>
    if (fr != FR_OK) {
 8000e3e:	b13c      	cbz	r4, 8000e50 <main+0xac>
        led_set(false);
 8000e40:	2000      	movs	r0, #0
 8000e42:	f7ff fa1d 	bl	8000280 <led_set>
        while (1) {
            delay_ms(1000u);
 8000e46:	f44f 707a 	mov.w	r0, #1000	@ 0x3e8
 8000e4a:	f7ff f94f 	bl	80000ec <delay_ms>
        while (1) {
 8000e4e:	e7fa      	b.n	8000e46 <main+0xa2>
        }
    }

    usart1_puts("bench: fs_type=");
 8000e50:	4822      	ldr	r0, [pc, #136]	@ (8000edc <main+0x138>)
 8000e52:	f7ff f95f 	bl	8000114 <usart1_puts>
    usart1_put_dec_u32((uint32_t)fs.fs_type);
 8000e56:	f89d 0000 	ldrb.w	r0, [sp]
 8000e5a:	f7ff f987 	bl	800016c <usart1_put_dec_u32>
    usart1_puts(" csize=");
 8000e5e:	4820      	ldr	r0, [pc, #128]	@ (8000ee0 <main+0x13c>)
 8000e60:	f7ff f958 	bl	8000114 <usart1_puts>
    usart1_put_dec_u32((uint32_t)fs.csize);
 8000e64:	f8bd 000a 	ldrh.w	r0, [sp, #10]
 8000e68:	f7ff f980 	bl	800016c <usart1_put_dec_u32>
    usart1_puts(" fatbase=");
 8000e6c:	481d      	ldr	r0, [pc, #116]	@ (8000ee4 <main+0x140>)
 8000e6e:	f7ff f951 	bl	8000114 <usart1_puts>
    usart1_put_dec_u32((uint32_t)fs.fatbase);
 8000e72:	9809      	ldr	r0, [sp, #36]	@ 0x24
 8000e74:	f7ff f97a 	bl	800016c <usart1_put_dec_u32>
    usart1_puts(" dirbase=");
 8000e78:	481b      	ldr	r0, [pc, #108]	@ (8000ee8 <main+0x144>)
 8000e7a:	f7ff f94b 	bl	8000114 <usart1_puts>
    usart1_put_dec_u32((uint32_t)fs.dirbase);
 8000e7e:	980a      	ldr	r0, [sp, #40]	@ 0x28
 8000e80:	f7ff f974 	bl	800016c <usart1_put_dec_u32>
    usart1_puts(" database=");
 8000e84:	4819      	ldr	r0, [pc, #100]	@ (8000eec <main+0x148>)
 8000e86:	f7ff f945 	bl	8000114 <usart1_puts>
    usart1_put_dec_u32((uint32_t)fs.database);
 8000e8a:	980b      	ldr	r0, [sp, #44]	@ 0x2c
 8000e8c:	f7ff f96e 	bl	800016c <usart1_put_dec_u32>
    usart1_puts("\r\n");
 8000e90:	480e      	ldr	r0, [pc, #56]	@ (8000ecc <main+0x128>)
 8000e92:	f7ff f93f 	bl	8000114 <usart1_puts>

    fatfs_write_benchmark();
 8000e96:	f7ff fd9f 	bl	80009d8 <fatfs_write_benchmark>

    usart1_puts("sd_write_bench: complete\r\n");
 8000e9a:	4815      	ldr	r0, [pc, #84]	@ (8000ef0 <main+0x14c>)
 8000e9c:	f7ff f93a 	bl	8000114 <usart1_puts>
    led_set(false);
 8000ea0:	2000      	movs	r0, #0
 8000ea2:	f7ff f9ed 	bl	8000280 <led_set>

    while (1) {
        delay_ms(1000u);
 8000ea6:	f44f 707a 	mov.w	r0, #1000	@ 0x3e8
 8000eaa:	f7ff f91f 	bl	80000ec <delay_ms>
    while (1) {
 8000eae:	e7fa      	b.n	8000ea6 <main+0x102>
 8000eb0:	20000004 	.word	0x20000004
 8000eb4:	10624dd3 	.word	0x10624dd3
 8000eb8:	e000ed00 	.word	0xe000ed00
 8000ebc:	08002758 	.word	0x08002758
 8000ec0:	08002788 	.word	0x08002788
 8000ec4:	080027bc 	.word	0x080027bc
 8000ec8:	080027f0 	.word	0x080027f0
 8000ecc:	08002570 	.word	0x08002570
 8000ed0:	0800280c 	.word	0x0800280c
 8000ed4:	08002834 	.word	0x08002834
 8000ed8:	08002838 	.word	0x08002838
 8000edc:	0800284c 	.word	0x0800284c
 8000ee0:	0800285c 	.word	0x0800285c
 8000ee4:	08002864 	.word	0x08002864
 8000ee8:	08002870 	.word	0x08002870
 8000eec:	0800287c 	.word	0x0800287c
 8000ef0:	08002888 	.word	0x08002888

08000ef4 <ld_16>:

static WORD ld_16 (const BYTE* ptr)	/*	 Load a 2-byte little-endian word */
{
	WORD rv;

	rv = ptr[1];
 8000ef4:	7842      	ldrb	r2, [r0, #1]
	rv = rv << 8 | ptr[0];
 8000ef6:	7800      	ldrb	r0, [r0, #0]
	return rv;
}
 8000ef8:	ea40 2002 	orr.w	r0, r0, r2, lsl #8
 8000efc:	4770      	bx	lr

08000efe <ld_32>:

static DWORD ld_32 (const BYTE* ptr)	/* Load a 4-byte little-endian word */
{
	DWORD rv;

	rv = ptr[3];
 8000efe:	78c3      	ldrb	r3, [r0, #3]
	rv = rv << 8 | ptr[2];
 8000f00:	7882      	ldrb	r2, [r0, #2]
 8000f02:	ea42 2203 	orr.w	r2, r2, r3, lsl #8
	rv = rv << 8 | ptr[1];
 8000f06:	7843      	ldrb	r3, [r0, #1]
 8000f08:	ea43 2302 	orr.w	r3, r3, r2, lsl #8
	rv = rv << 8 | ptr[0];
 8000f0c:	7800      	ldrb	r0, [r0, #0]
	return rv;
}
 8000f0e:	ea40 2003 	orr.w	r0, r0, r3, lsl #8
 8000f12:	4770      	bx	lr

08000f14 <st_16>:
#endif

#if !FF_FS_READONLY
static void st_16 (BYTE* ptr, WORD val)	/* Store a 2-byte word in little-endian */
{
	*ptr++ = (BYTE)val; val >>= 8;
 8000f14:	7001      	strb	r1, [r0, #0]
	*ptr++ = (BYTE)val;
 8000f16:	0a09      	lsrs	r1, r1, #8
 8000f18:	7041      	strb	r1, [r0, #1]
}
 8000f1a:	4770      	bx	lr

08000f1c <st_32>:

static void st_32 (BYTE* ptr, DWORD val)	/* Store a 4-byte word in little-endian */
{
	*ptr++ = (BYTE)val; val >>= 8;
 8000f1c:	7001      	strb	r1, [r0, #0]
	*ptr++ = (BYTE)val; val >>= 8;
 8000f1e:	f3c1 2307 	ubfx	r3, r1, #8, #8
 8000f22:	7043      	strb	r3, [r0, #1]
	*ptr++ = (BYTE)val; val >>= 8;
 8000f24:	f3c1 4307 	ubfx	r3, r1, #16, #8
 8000f28:	7083      	strb	r3, [r0, #2]
	*ptr++ = (BYTE)val;
 8000f2a:	0e09      	lsrs	r1, r1, #24
 8000f2c:	70c1      	strb	r1, [r0, #3]
}
 8000f2e:	4770      	bx	lr

08000f30 <dbc_1st>:
	}
#else						/* SBCS fixed code page */
	if (c != 0) return 0;	/* Always false */
#endif
	return 0;
}
 8000f30:	2000      	movs	r0, #0
 8000f32:	4770      	bx	lr

08000f34 <dbc_2nd>:
	}
#else						/* SBCS fixed code page */
	if (c != 0) return 0;	/* Always false */
#endif
	return 0;
}
 8000f34:	2000      	movs	r0, #0
 8000f36:	4770      	bx	lr

08000f38 <clst2sect>:
static LBA_t clst2sect (	/* !=0:Sector number, 0:Failed (invalid cluster#) */
	FATFS* fs,		/* Filesystem object */
	DWORD clst		/* Cluster# to be converted */
)
{
	clst -= 2;		/* Cluster number is origin from 2 */
 8000f38:	3902      	subs	r1, #2
	if (clst >= fs->n_fatent - 2) return 0;		/* Is it invalid cluster number? */
 8000f3a:	6943      	ldr	r3, [r0, #20]
 8000f3c:	3b02      	subs	r3, #2
 8000f3e:	428b      	cmp	r3, r1
 8000f40:	d904      	bls.n	8000f4c <clst2sect+0x14>
	return fs->database + (LBA_t)fs->csize * clst;	/* Start sector number of the cluster */
 8000f42:	6ac3      	ldr	r3, [r0, #44]	@ 0x2c
 8000f44:	8942      	ldrh	r2, [r0, #10]
 8000f46:	fb01 3002 	mla	r0, r1, r2, r3
 8000f4a:	4770      	bx	lr
	if (clst >= fs->n_fatent - 2) return 0;		/* Is it invalid cluster number? */
 8000f4c:	2000      	movs	r0, #0
}
 8000f4e:	4770      	bx	lr

08000f50 <ld_clust>:

static DWORD ld_clust (	/* Returns the top cluster value of the SFN entry */
	FATFS* fs,			/* Pointer to the fs object */
	const BYTE* dir		/* Pointer to the key entry */
)
{
 8000f50:	b570      	push	{r4, r5, r6, lr}
 8000f52:	4606      	mov	r6, r0
 8000f54:	460d      	mov	r5, r1
	DWORD cl;

	cl = ld_16(dir + DIR_FstClusLO);
 8000f56:	f101 001a 	add.w	r0, r1, #26
 8000f5a:	f7ff ffcb 	bl	8000ef4 <ld_16>
	if (fs->fs_type == FS_FAT32) {
 8000f5e:	7833      	ldrb	r3, [r6, #0]
 8000f60:	2b03      	cmp	r3, #3
 8000f62:	d000      	beq.n	8000f66 <ld_clust+0x16>
		cl |= (DWORD)ld_16(dir + DIR_FstClusHI) << 16;
	}

	return cl;
}
 8000f64:	bd70      	pop	{r4, r5, r6, pc}
 8000f66:	4604      	mov	r4, r0
		cl |= (DWORD)ld_16(dir + DIR_FstClusHI) << 16;
 8000f68:	f105 0014 	add.w	r0, r5, #20
 8000f6c:	f7ff ffc2 	bl	8000ef4 <ld_16>
 8000f70:	ea44 4000 	orr.w	r0, r4, r0, lsl #16
	return cl;
 8000f74:	e7f6      	b.n	8000f64 <ld_clust+0x14>

08000f76 <st_clust>:
static void st_clust (
	FATFS* fs,	/* Pointer to the fs object */
	BYTE* dir,	/* Pointer to the key entry */
	DWORD cl	/* Value to be set */
)
{
 8000f76:	b570      	push	{r4, r5, r6, lr}
 8000f78:	4606      	mov	r6, r0
 8000f7a:	460c      	mov	r4, r1
 8000f7c:	4615      	mov	r5, r2
	st_16(dir + DIR_FstClusLO, (WORD)cl);
 8000f7e:	b291      	uxth	r1, r2
 8000f80:	f104 001a 	add.w	r0, r4, #26
 8000f84:	f7ff ffc6 	bl	8000f14 <st_16>
	if (fs->fs_type == FS_FAT32) {
 8000f88:	7833      	ldrb	r3, [r6, #0]
 8000f8a:	2b03      	cmp	r3, #3
 8000f8c:	d000      	beq.n	8000f90 <st_clust+0x1a>
		st_16(dir + DIR_FstClusHI, (WORD)(cl >> 16));
	}
}
 8000f8e:	bd70      	pop	{r4, r5, r6, pc}
		st_16(dir + DIR_FstClusHI, (WORD)(cl >> 16));
 8000f90:	0c29      	lsrs	r1, r5, #16
 8000f92:	f104 0014 	add.w	r0, r4, #20
 8000f96:	f7ff ffbd 	bl	8000f14 <st_16>
}
 8000f9a:	e7f8      	b.n	8000f8e <st_clust+0x18>

08000f9c <get_ldnumber>:
/*-----------------------------------------------------------------------*/

static int get_ldnumber (	/* Returns logical drive number (-1:invalid drive number or null pointer) */
	const TCHAR** path		/* Pointer to pointer to the path name */
)
{
 8000f9c:	4684      	mov	ip, r0
#if FF_STR_VOLUME_ID		/* Find string volume ID */
	const char *vsp;
	char vchr;
#endif

	tt = tp = *path;
 8000f9e:	6801      	ldr	r1, [r0, #0]
	if (!tp) return -1;		/* Invalid path name? */
 8000fa0:	b1c9      	cbz	r1, 8000fd6 <get_ldnumber+0x3a>
	tt = tp = *path;
 8000fa2:	460a      	mov	r2, r1
	do {					/* Find a colon in the path */
		chr = *tt++;
 8000fa4:	7813      	ldrb	r3, [r2, #0]
 8000fa6:	3201      	adds	r2, #1
	} while (!IsTerminator(chr) && chr != ':');
 8000fa8:	2b20      	cmp	r3, #32
 8000faa:	d901      	bls.n	8000fb0 <get_ldnumber+0x14>
 8000fac:	2b3a      	cmp	r3, #58	@ 0x3a
 8000fae:	d1f9      	bne.n	8000fa4 <get_ldnumber+0x8>

	if (chr == ':') {	/* Is there a DOS/Windows style volume ID? */
 8000fb0:	2b3a      	cmp	r3, #58	@ 0x3a
 8000fb2:	d001      	beq.n	8000fb8 <get_ldnumber+0x1c>
#endif
	/* No drive prefix */
#if FF_FS_RPATH
	return (int)CurrVol;	/* Default drive is current drive */
#else
	return 0;				/* Default drive is 0 */
 8000fb4:	2000      	movs	r0, #0
 8000fb6:	4770      	bx	lr
		if (IsDigit(*tp) && tp + 2 == tt) {	/* Is it a numeric volume ID + colon? */
 8000fb8:	7808      	ldrb	r0, [r1, #0]
 8000fba:	f1a0 0330 	sub.w	r3, r0, #48	@ 0x30
 8000fbe:	b2db      	uxtb	r3, r3
 8000fc0:	2b09      	cmp	r3, #9
 8000fc2:	d80b      	bhi.n	8000fdc <get_ldnumber+0x40>
 8000fc4:	3102      	adds	r1, #2
 8000fc6:	4291      	cmp	r1, r2
 8000fc8:	d10b      	bne.n	8000fe2 <get_ldnumber+0x46>
			i = (int)*tp - '0';	/* Get the logical drive number */
 8000fca:	3830      	subs	r0, #48	@ 0x30
		if (i >= FF_VOLUMES) return -1;	/* Not found or invalid volume ID */
 8000fcc:	2800      	cmp	r0, #0
 8000fce:	dc0b      	bgt.n	8000fe8 <get_ldnumber+0x4c>
		*path = tt;		/* Snip the drive prefix off */
 8000fd0:	f8cc 2000 	str.w	r2, [ip]
		return i;		/* Return the found drive number */
 8000fd4:	4770      	bx	lr
	if (!tp) return -1;		/* Invalid path name? */
 8000fd6:	f04f 30ff 	mov.w	r0, #4294967295	@ 0xffffffff
 8000fda:	4770      	bx	lr
		if (i >= FF_VOLUMES) return -1;	/* Not found or invalid volume ID */
 8000fdc:	f04f 30ff 	mov.w	r0, #4294967295	@ 0xffffffff
 8000fe0:	4770      	bx	lr
 8000fe2:	f04f 30ff 	mov.w	r0, #4294967295	@ 0xffffffff
 8000fe6:	4770      	bx	lr
 8000fe8:	f04f 30ff 	mov.w	r0, #4294967295	@ 0xffffffff
#endif
}
 8000fec:	4770      	bx	lr

08000fee <validate>:

static FRESULT validate (	/* Returns FR_OK or FR_INVALID_OBJECT */
	FFOBJID* obj,			/* Pointer to the FFOBJID, the 1st member in the FIL/DIR structure, to check validity */
	FATFS** rfs				/* Pointer to pointer to the owner filesystem object to return */
)
{
 8000fee:	b538      	push	{r3, r4, r5, lr}
 8000ff0:	460d      	mov	r5, r1
	FRESULT res = FR_INVALID_OBJECT;


	if (obj && obj->fs && obj->fs->fs_type && obj->id == obj->fs->id) {	/* Test if the object is valid */
 8000ff2:	4604      	mov	r4, r0
 8000ff4:	b198      	cbz	r0, 800101e <validate+0x30>
 8000ff6:	6803      	ldr	r3, [r0, #0]
 8000ff8:	b19b      	cbz	r3, 8001022 <validate+0x34>
 8000ffa:	781a      	ldrb	r2, [r3, #0]
 8000ffc:	b1a2      	cbz	r2, 8001028 <validate+0x3a>
 8000ffe:	8881      	ldrh	r1, [r0, #4]
 8001000:	88da      	ldrh	r2, [r3, #6]
 8001002:	4291      	cmp	r1, r2
 8001004:	d003      	beq.n	800100e <validate+0x20>
	FRESULT res = FR_INVALID_OBJECT;
 8001006:	2009      	movs	r0, #9
		if (!(disk_status(obj->fs->pdrv) & STA_NOINIT)) { /* Test if the hosting physical drive is kept initialized */
			res = FR_OK;
		}
#endif
	}
	*rfs = (res == FR_OK) ? obj->fs : 0;	/* Return corresponding filesystem object if it is valid */
 8001008:	2400      	movs	r4, #0
 800100a:	602c      	str	r4, [r5, #0]
	return res;
}
 800100c:	bd38      	pop	{r3, r4, r5, pc}
		if (!(disk_status(obj->fs->pdrv) & STA_NOINIT)) { /* Test if the hosting physical drive is kept initialized */
 800100e:	7858      	ldrb	r0, [r3, #1]
 8001010:	f7ff fe2e 	bl	8000c70 <disk_status>
 8001014:	f010 0001 	ands.w	r0, r0, #1
 8001018:	d109      	bne.n	800102e <validate+0x40>
	*rfs = (res == FR_OK) ? obj->fs : 0;	/* Return corresponding filesystem object if it is valid */
 800101a:	6824      	ldr	r4, [r4, #0]
 800101c:	e7f5      	b.n	800100a <validate+0x1c>
	FRESULT res = FR_INVALID_OBJECT;
 800101e:	2009      	movs	r0, #9
 8001020:	e7f3      	b.n	800100a <validate+0x1c>
	*rfs = (res == FR_OK) ? obj->fs : 0;	/* Return corresponding filesystem object if it is valid */
 8001022:	461c      	mov	r4, r3
	FRESULT res = FR_INVALID_OBJECT;
 8001024:	2009      	movs	r0, #9
 8001026:	e7f0      	b.n	800100a <validate+0x1c>
 8001028:	2009      	movs	r0, #9
	*rfs = (res == FR_OK) ? obj->fs : 0;	/* Return corresponding filesystem object if it is valid */
 800102a:	2400      	movs	r4, #0
 800102c:	e7ed      	b.n	800100a <validate+0x1c>
	FRESULT res = FR_INVALID_OBJECT;
 800102e:	2009      	movs	r0, #9
	*rfs = (res == FR_OK) ? obj->fs : 0;	/* Return corresponding filesystem object if it is valid */
 8001030:	2400      	movs	r4, #0
 8001032:	e7ea      	b.n	800100a <validate+0x1c>

08001034 <sync_window>:
{
 8001034:	b570      	push	{r4, r5, r6, lr}
	if (fs->wflag) {	/* Is the disk access window dirty? */
 8001036:	7905      	ldrb	r5, [r0, #4]
 8001038:	b90d      	cbnz	r5, 800103e <sync_window+0xa>
}
 800103a:	4628      	mov	r0, r5
 800103c:	bd70      	pop	{r4, r5, r6, pc}
 800103e:	4604      	mov	r4, r0
		if (disk_write(fs->pdrv, fs->win, fs->winsect, 1) == RES_OK) {	/* Write it back into the volume */
 8001040:	f100 0630 	add.w	r6, r0, #48	@ 0x30
 8001044:	2301      	movs	r3, #1
 8001046:	69c2      	ldr	r2, [r0, #28]
 8001048:	4631      	mov	r1, r6
 800104a:	7840      	ldrb	r0, [r0, #1]
 800104c:	f7ff fe40 	bl	8000cd0 <disk_write>
 8001050:	4605      	mov	r5, r0
 8001052:	b988      	cbnz	r0, 8001078 <sync_window+0x44>
			fs->wflag = 0;	/* Clear window dirty flag */
 8001054:	2300      	movs	r3, #0
 8001056:	7123      	strb	r3, [r4, #4]
			if (fs->winsect - fs->fatbase < fs->fsize) {	/* Is it in the 1st FAT? */
 8001058:	69e1      	ldr	r1, [r4, #28]
 800105a:	6a63      	ldr	r3, [r4, #36]	@ 0x24
 800105c:	1acb      	subs	r3, r1, r3
 800105e:	69a2      	ldr	r2, [r4, #24]
 8001060:	4293      	cmp	r3, r2
 8001062:	d2ea      	bcs.n	800103a <sync_window+0x6>
				if (fs->n_fats == 2) disk_write(fs->pdrv, fs->win, fs->winsect + fs->fsize, 1);	/* Reflect it to 2nd FAT if needed */
 8001064:	78e3      	ldrb	r3, [r4, #3]
 8001066:	2b02      	cmp	r3, #2
 8001068:	d1e7      	bne.n	800103a <sync_window+0x6>
 800106a:	2301      	movs	r3, #1
 800106c:	440a      	add	r2, r1
 800106e:	4631      	mov	r1, r6
 8001070:	7860      	ldrb	r0, [r4, #1]
 8001072:	f7ff fe2d 	bl	8000cd0 <disk_write>
 8001076:	e7e0      	b.n	800103a <sync_window+0x6>
			res = FR_DISK_ERR;
 8001078:	2501      	movs	r5, #1
 800107a:	e7de      	b.n	800103a <sync_window+0x6>

0800107c <move_window>:
{
 800107c:	b570      	push	{r4, r5, r6, lr}
	if (sect != fs->winsect) {	/* Window offset changed? */
 800107e:	69c3      	ldr	r3, [r0, #28]
 8001080:	428b      	cmp	r3, r1
 8001082:	d102      	bne.n	800108a <move_window+0xe>
	FRESULT res = FR_OK;
 8001084:	2600      	movs	r6, #0
}
 8001086:	4630      	mov	r0, r6
 8001088:	bd70      	pop	{r4, r5, r6, pc}
 800108a:	4604      	mov	r4, r0
 800108c:	460d      	mov	r5, r1
		res = sync_window(fs);		/* Flush the window */
 800108e:	f7ff ffd1 	bl	8001034 <sync_window>
		if (res == FR_OK) {			/* Fill sector window with new data */
 8001092:	4606      	mov	r6, r0
 8001094:	2800      	cmp	r0, #0
 8001096:	d1f6      	bne.n	8001086 <move_window+0xa>
			if (disk_read(fs->pdrv, fs->win, sect, 1) != RES_OK) {
 8001098:	2301      	movs	r3, #1
 800109a:	462a      	mov	r2, r5
 800109c:	f104 0130 	add.w	r1, r4, #48	@ 0x30
 80010a0:	7860      	ldrb	r0, [r4, #1]
 80010a2:	f7ff fded 	bl	8000c80 <disk_read>
 80010a6:	b110      	cbz	r0, 80010ae <move_window+0x32>
				res = FR_DISK_ERR;
 80010a8:	2601      	movs	r6, #1
				sect = (LBA_t)0 - 1;	/* Invalidate window if read data is not valid */
 80010aa:	f04f 35ff 	mov.w	r5, #4294967295	@ 0xffffffff
			fs->winsect = sect;
 80010ae:	61e5      	str	r5, [r4, #28]
 80010b0:	e7e9      	b.n	8001086 <move_window+0xa>
	...

080010b4 <check_fs>:
{
 80010b4:	b538      	push	{r3, r4, r5, lr}
 80010b6:	4604      	mov	r4, r0
	fs->wflag = 0; fs->winsect = (LBA_t)0 - 1;		/* Invaidate window */
 80010b8:	2300      	movs	r3, #0
 80010ba:	7103      	strb	r3, [r0, #4]
 80010bc:	f04f 33ff 	mov.w	r3, #4294967295	@ 0xffffffff
 80010c0:	61c3      	str	r3, [r0, #28]
	if (move_window(fs, sect) != FR_OK) return 4;	/* Load the boot sector */
 80010c2:	f7ff ffdb 	bl	800107c <move_window>
 80010c6:	2800      	cmp	r0, #0
 80010c8:	d15a      	bne.n	8001180 <check_fs+0xcc>
	sign = ld_16(fs->win + BS_55AA);
 80010ca:	f204 202e 	addw	r0, r4, #558	@ 0x22e
 80010ce:	f7ff ff11 	bl	8000ef4 <ld_16>
 80010d2:	4605      	mov	r5, r0
	b = fs->win[BS_JmpBoot];
 80010d4:	f894 3030 	ldrb.w	r3, [r4, #48]	@ 0x30
	if (b == 0xEB || b == 0xE9 || b == 0xE8) {	/* Valid JumpBoot code? (short jump, near jump or near call) */
 80010d8:	2beb      	cmp	r3, #235	@ 0xeb
 80010da:	d009      	beq.n	80010f0 <check_fs+0x3c>
 80010dc:	2be9      	cmp	r3, #233	@ 0xe9
 80010de:	d007      	beq.n	80010f0 <check_fs+0x3c>
 80010e0:	2be8      	cmp	r3, #232	@ 0xe8
 80010e2:	d005      	beq.n	80010f0 <check_fs+0x3c>
	return sign == 0xAA55 ? 2 : 3;	/* Not an FAT VBR (with valid or invalid BS) */
 80010e4:	f64a 2355 	movw	r3, #43605	@ 0xaa55
 80010e8:	429d      	cmp	r5, r3
 80010ea:	d047      	beq.n	800117c <check_fs+0xc8>
 80010ec:	2003      	movs	r0, #3
}
 80010ee:	bd38      	pop	{r3, r4, r5, pc}
		if (sign == 0xAA55 && !memcmp(fs->win + BS_FilSysType32, "FAT32   ", 8)) {
 80010f0:	f64a 2355 	movw	r3, #43605	@ 0xaa55
 80010f4:	429d      	cmp	r5, r3
 80010f6:	d037      	beq.n	8001168 <check_fs+0xb4>
		w = ld_16(fs->win + BPB_BytsPerSec);
 80010f8:	f104 003b 	add.w	r0, r4, #59	@ 0x3b
 80010fc:	f7ff fefa 	bl	8000ef4 <ld_16>
		b = fs->win[BPB_SecPerClus];
 8001100:	f894 203d 	ldrb.w	r2, [r4, #61]	@ 0x3d
		if ((w & (w - 1)) == 0 && w >= FF_MIN_SS && w <= FF_MAX_SS	/* Properness of sector size (512-4096 and 2^n) */
 8001104:	1e43      	subs	r3, r0, #1
 8001106:	4218      	tst	r0, r3
 8001108:	d1ec      	bne.n	80010e4 <check_fs+0x30>
 800110a:	f5b0 7f00 	cmp.w	r0, #512	@ 0x200
 800110e:	d3e9      	bcc.n	80010e4 <check_fs+0x30>
 8001110:	d8e8      	bhi.n	80010e4 <check_fs+0x30>
			&& b != 0 && (b & (b - 1)) == 0				/* Properness of cluster size (2^n) */
 8001112:	2a00      	cmp	r2, #0
 8001114:	d0e6      	beq.n	80010e4 <check_fs+0x30>
 8001116:	1e53      	subs	r3, r2, #1
 8001118:	421a      	tst	r2, r3
 800111a:	d1e3      	bne.n	80010e4 <check_fs+0x30>
			&& ld_16(fs->win + BPB_RsvdSecCnt) != 0		/* Properness of number of reserved sectors (MNBZ) */
 800111c:	f104 003e 	add.w	r0, r4, #62	@ 0x3e
 8001120:	f7ff fee8 	bl	8000ef4 <ld_16>
 8001124:	2800      	cmp	r0, #0
 8001126:	d0dd      	beq.n	80010e4 <check_fs+0x30>
			&& (UINT)fs->win[BPB_NumFATs] - 1 <= 1		/* Properness of number of FATs (1 or 2) */
 8001128:	f894 3040 	ldrb.w	r3, [r4, #64]	@ 0x40
 800112c:	3b01      	subs	r3, #1
 800112e:	2b01      	cmp	r3, #1
 8001130:	d8d8      	bhi.n	80010e4 <check_fs+0x30>
			&& ld_16(fs->win + BPB_RootEntCnt) != 0		/* Properness of root dir size (MNBZ) */
 8001132:	f104 0041 	add.w	r0, r4, #65	@ 0x41
 8001136:	f7ff fedd 	bl	8000ef4 <ld_16>
 800113a:	2800      	cmp	r0, #0
 800113c:	d0d2      	beq.n	80010e4 <check_fs+0x30>
			&& (ld_16(fs->win + BPB_TotSec16) >= 128 || ld_32(fs->win + BPB_TotSec32) >= 0x10000)	/* Properness of volume size (>=128) */
 800113e:	f104 0043 	add.w	r0, r4, #67	@ 0x43
 8001142:	f7ff fed7 	bl	8000ef4 <ld_16>
 8001146:	287f      	cmp	r0, #127	@ 0x7f
 8001148:	d806      	bhi.n	8001158 <check_fs+0xa4>
 800114a:	f104 0050 	add.w	r0, r4, #80	@ 0x50
 800114e:	f7ff fed6 	bl	8000efe <ld_32>
 8001152:	f5b0 3f80 	cmp.w	r0, #65536	@ 0x10000
 8001156:	d3c5      	bcc.n	80010e4 <check_fs+0x30>
			&& ld_16(fs->win + BPB_FATSz16) != 0) {		/* Properness of FAT size (MNBZ) */
 8001158:	f104 0046 	add.w	r0, r4, #70	@ 0x46
 800115c:	f7ff feca 	bl	8000ef4 <ld_16>
 8001160:	2800      	cmp	r0, #0
 8001162:	d0bf      	beq.n	80010e4 <check_fs+0x30>
				return 0;	/* It can be presumed an FAT VBR */
 8001164:	2000      	movs	r0, #0
 8001166:	e7c2      	b.n	80010ee <check_fs+0x3a>
		if (sign == 0xAA55 && !memcmp(fs->win + BS_FilSysType32, "FAT32   ", 8)) {
 8001168:	2208      	movs	r2, #8
 800116a:	4906      	ldr	r1, [pc, #24]	@ (8001184 <check_fs+0xd0>)
 800116c:	f104 0082 	add.w	r0, r4, #130	@ 0x82
 8001170:	f001 f940 	bl	80023f4 <memcmp>
 8001174:	2800      	cmp	r0, #0
 8001176:	d1bf      	bne.n	80010f8 <check_fs+0x44>
			return 0;	/* It is an FAT32 VBR */
 8001178:	2000      	movs	r0, #0
 800117a:	e7b8      	b.n	80010ee <check_fs+0x3a>
	return sign == 0xAA55 ? 2 : 3;	/* Not an FAT VBR (with valid or invalid BS) */
 800117c:	2002      	movs	r0, #2
 800117e:	e7b6      	b.n	80010ee <check_fs+0x3a>
	if (move_window(fs, sect) != FR_OK) return 4;	/* Load the boot sector */
 8001180:	2004      	movs	r0, #4
 8001182:	e7b4      	b.n	80010ee <check_fs+0x3a>
 8001184:	080028a4 	.word	0x080028a4

08001188 <find_volume>:
{
 8001188:	b570      	push	{r4, r5, r6, lr}
 800118a:	b084      	sub	sp, #16
 800118c:	4606      	mov	r6, r0
 800118e:	460d      	mov	r5, r1
	fmt = check_fs(fs, 0);				/* Load sector 0 and check if it is an FAT VBR as SFD format */
 8001190:	2100      	movs	r1, #0
 8001192:	f7ff ff8f 	bl	80010b4 <check_fs>
	if (fmt != 2 && (fmt >= 3 || part == 0)) return fmt;	/* Returns if it is an FAT VBR as auto scan, not a BS or disk error */
 8001196:	2802      	cmp	r0, #2
 8001198:	d016      	beq.n	80011c8 <find_volume+0x40>
 800119a:	d82b      	bhi.n	80011f4 <find_volume+0x6c>
 800119c:	b355      	cbz	r5, 80011f4 <find_volume+0x6c>
 800119e:	2400      	movs	r4, #0
 80011a0:	e00d      	b.n	80011be <find_volume+0x36>
		mbr_pt[i] = ld_32(fs->win + MBR_Table + i * SZ_PTE + PTE_StLba);
 80011a2:	f106 0030 	add.w	r0, r6, #48	@ 0x30
 80011a6:	0123      	lsls	r3, r4, #4
 80011a8:	f503 73e3 	add.w	r3, r3, #454	@ 0x1c6
 80011ac:	4418      	add	r0, r3
 80011ae:	f7ff fea6 	bl	8000efe <ld_32>
 80011b2:	ab04      	add	r3, sp, #16
 80011b4:	eb03 0384 	add.w	r3, r3, r4, lsl #2
 80011b8:	f843 0c10 	str.w	r0, [r3, #-16]
	for (i = 0; i < 4; i++) {		/* Load partition offset in the MBR */
 80011bc:	3401      	adds	r4, #1
 80011be:	2c03      	cmp	r4, #3
 80011c0:	d9ef      	bls.n	80011a2 <find_volume+0x1a>
	i = part ? part - 1 : 0;		/* Table index to find first */
 80011c2:	b11d      	cbz	r5, 80011cc <find_volume+0x44>
 80011c4:	1e6c      	subs	r4, r5, #1
 80011c6:	e00c      	b.n	80011e2 <find_volume+0x5a>
 80011c8:	2400      	movs	r4, #0
 80011ca:	e7f8      	b.n	80011be <find_volume+0x36>
 80011cc:	462c      	mov	r4, r5
 80011ce:	e008      	b.n	80011e2 <find_volume+0x5a>
		fmt = mbr_pt[i] ? check_fs(fs, mbr_pt[i]) : 3;	/* Check if the partition is FAT */
 80011d0:	4630      	mov	r0, r6
 80011d2:	f7ff ff6f 	bl	80010b4 <check_fs>
	} while (part == 0 && fmt >= 2 && ++i < 4);
 80011d6:	b96d      	cbnz	r5, 80011f4 <find_volume+0x6c>
 80011d8:	2801      	cmp	r0, #1
 80011da:	d90b      	bls.n	80011f4 <find_volume+0x6c>
 80011dc:	3401      	adds	r4, #1
 80011de:	2c03      	cmp	r4, #3
 80011e0:	d808      	bhi.n	80011f4 <find_volume+0x6c>
		fmt = mbr_pt[i] ? check_fs(fs, mbr_pt[i]) : 3;	/* Check if the partition is FAT */
 80011e2:	ab04      	add	r3, sp, #16
 80011e4:	eb03 0384 	add.w	r3, r3, r4, lsl #2
 80011e8:	f853 1c10 	ldr.w	r1, [r3, #-16]
 80011ec:	2900      	cmp	r1, #0
 80011ee:	d1ef      	bne.n	80011d0 <find_volume+0x48>
 80011f0:	2003      	movs	r0, #3
 80011f2:	e7f0      	b.n	80011d6 <find_volume+0x4e>
}
 80011f4:	b004      	add	sp, #16
 80011f6:	bd70      	pop	{r4, r5, r6, pc}

080011f8 <mount_volume>:
{
 80011f8:	e92d 4ff8 	stmdb	sp!, {r3, r4, r5, r6, r7, r8, r9, sl, fp, lr}
 80011fc:	460d      	mov	r5, r1
 80011fe:	4616      	mov	r6, r2
	*rfs = 0;
 8001200:	2300      	movs	r3, #0
 8001202:	600b      	str	r3, [r1, #0]
	vol = get_ldnumber(path);
 8001204:	f7ff feca 	bl	8000f9c <get_ldnumber>
	if (vol < 0) return FR_INVALID_DRIVE;
 8001208:	2800      	cmp	r0, #0
 800120a:	f2c0 8118 	blt.w	800143e <mount_volume+0x246>
	fs = FatFs[vol];					/* Get pointer to the filesystem object */
 800120e:	4ba0      	ldr	r3, [pc, #640]	@ (8001490 <mount_volume+0x298>)
 8001210:	f853 4020 	ldr.w	r4, [r3, r0, lsl #2]
	if (!fs) return FR_NOT_ENABLED;		/* Is the filesystem object available? */
 8001214:	2c00      	cmp	r4, #0
 8001216:	f000 8116 	beq.w	8001446 <mount_volume+0x24e>
	*rfs = fs;							/* Return pointer to the filesystem object */
 800121a:	602c      	str	r4, [r5, #0]
	mode &= (BYTE)~FA_READ;				/* Desired access mode, write access or not */
 800121c:	f006 06fe 	and.w	r6, r6, #254	@ 0xfe
	if (fs->fs_type != 0) {				/* If the volume has been mounted */
 8001220:	7823      	ldrb	r3, [r4, #0]
 8001222:	b173      	cbz	r3, 8001242 <mount_volume+0x4a>
		stat = disk_status(fs->pdrv);
 8001224:	7860      	ldrb	r0, [r4, #1]
 8001226:	f7ff fd23 	bl	8000c70 <disk_status>
		if (!(stat & STA_NOINIT)) {		/* and the physical drive is kept initialized */
 800122a:	f010 0501 	ands.w	r5, r0, #1
 800122e:	d108      	bne.n	8001242 <mount_volume+0x4a>
			if (!FF_FS_READONLY && mode && (stat & STA_PROTECT)) {	/* Check write protection if needed */
 8001230:	2e00      	cmp	r6, #0
 8001232:	f000 8105 	beq.w	8001440 <mount_volume+0x248>
 8001236:	f010 0f04 	tst.w	r0, #4
 800123a:	f000 8101 	beq.w	8001440 <mount_volume+0x248>
				return FR_WRITE_PROTECTED;
 800123e:	250a      	movs	r5, #10
 8001240:	e0fe      	b.n	8001440 <mount_volume+0x248>
	fs->fs_type = 0;					/* Invalidate the filesystem object */
 8001242:	2300      	movs	r3, #0
 8001244:	7023      	strb	r3, [r4, #0]
	stat = disk_initialize(fs->pdrv);	/* Initialize the volume hosting physical drive */
 8001246:	7860      	ldrb	r0, [r4, #1]
 8001248:	f7ff fcf8 	bl	8000c3c <disk_initialize>
	if (stat & STA_NOINIT) { 			/* Check if the initialization succeeded */
 800124c:	f010 0501 	ands.w	r5, r0, #1
 8001250:	f040 80fb 	bne.w	800144a <mount_volume+0x252>
	if (!FF_FS_READONLY && mode && (stat & STA_PROTECT)) { /* Check disk write protection if needed */
 8001254:	b11e      	cbz	r6, 800125e <mount_volume+0x66>
 8001256:	f010 0f04 	tst.w	r0, #4
 800125a:	f040 80f8 	bne.w	800144e <mount_volume+0x256>
	fmt = find_volume(fs, LD2PT(vol));
 800125e:	2100      	movs	r1, #0
 8001260:	4620      	mov	r0, r4
 8001262:	f7ff ff91 	bl	8001188 <find_volume>
	if (fmt == 4) return FR_DISK_ERR;		/* An error occurred in the disk I/O layer */
 8001266:	2804      	cmp	r0, #4
 8001268:	f000 80f3 	beq.w	8001452 <mount_volume+0x25a>
	if (fmt >= 2) return FR_NO_FILESYSTEM;	/* No FAT volume is found */
 800126c:	2801      	cmp	r0, #1
 800126e:	f200 80f2 	bhi.w	8001456 <mount_volume+0x25e>
	bsect = fs->winsect;					/* Volume offset in the hosting physical drive */
 8001272:	69e6      	ldr	r6, [r4, #28]
		if (ld_16(fs->win + BPB_BytsPerSec) != SS(fs)) return FR_NO_FILESYSTEM;	/* (BPB_BytsPerSec must be equal to the physical sector size) */
 8001274:	f104 003b 	add.w	r0, r4, #59	@ 0x3b
 8001278:	f7ff fe3c 	bl	8000ef4 <ld_16>
 800127c:	f5b0 7f00 	cmp.w	r0, #512	@ 0x200
 8001280:	f040 80eb 	bne.w	800145a <mount_volume+0x262>
		fasize = ld_16(fs->win + BPB_FATSz16);		/* Number of sectors per FAT */
 8001284:	f104 0046 	add.w	r0, r4, #70	@ 0x46
 8001288:	f7ff fe34 	bl	8000ef4 <ld_16>
 800128c:	4607      	mov	r7, r0
		if (fasize == 0) fasize = ld_32(fs->win + BPB_FATSz32);
 800128e:	b920      	cbnz	r0, 800129a <mount_volume+0xa2>
 8001290:	f104 0054 	add.w	r0, r4, #84	@ 0x54
 8001294:	f7ff fe33 	bl	8000efe <ld_32>
 8001298:	4607      	mov	r7, r0
		fs->fsize = fasize;
 800129a:	61a7      	str	r7, [r4, #24]
		fs->n_fats = fs->win[BPB_NumFATs];				/* Number of FATs */
 800129c:	f894 2040 	ldrb.w	r2, [r4, #64]	@ 0x40
 80012a0:	70e2      	strb	r2, [r4, #3]
		if (fs->n_fats != 1 && fs->n_fats != 2) return FR_NO_FILESYSTEM;	/* (Must be 1 or 2) */
 80012a2:	1e53      	subs	r3, r2, #1
 80012a4:	b2db      	uxtb	r3, r3
 80012a6:	2b01      	cmp	r3, #1
 80012a8:	f200 80d9 	bhi.w	800145e <mount_volume+0x266>
		fasize *= fs->n_fats;							/* Number of sectors for FAT area */
 80012ac:	fb07 f802 	mul.w	r8, r7, r2
		fs->csize = fs->win[BPB_SecPerClus];			/* Cluster size */
 80012b0:	f894 903d 	ldrb.w	r9, [r4, #61]	@ 0x3d
 80012b4:	f8a4 900a 	strh.w	r9, [r4, #10]
		if (fs->csize == 0 || (fs->csize & (fs->csize - 1))) return FR_NO_FILESYSTEM;	/* (Must be power of 2) */
 80012b8:	f1b9 0f00 	cmp.w	r9, #0
 80012bc:	f000 80d1 	beq.w	8001462 <mount_volume+0x26a>
 80012c0:	f109 33ff 	add.w	r3, r9, #4294967295	@ 0xffffffff
 80012c4:	ea19 0f03 	tst.w	r9, r3
 80012c8:	f040 80cd 	bne.w	8001466 <mount_volume+0x26e>
		fs->n_rootdir = ld_16(fs->win + BPB_RootEntCnt);	/* Number of root directory entries */
 80012cc:	f104 0041 	add.w	r0, r4, #65	@ 0x41
 80012d0:	f7ff fe10 	bl	8000ef4 <ld_16>
 80012d4:	4682      	mov	sl, r0
 80012d6:	8120      	strh	r0, [r4, #8]
		if (fs->n_rootdir % (SS(fs) / SZDIRE)) return FR_NO_FILESYSTEM;	/* (Must be sector aligned) */
 80012d8:	f010 0f0f 	tst.w	r0, #15
 80012dc:	f040 80c5 	bne.w	800146a <mount_volume+0x272>
		tsect = ld_16(fs->win + BPB_TotSec16);			/* Number of sectors on the volume */
 80012e0:	f104 0043 	add.w	r0, r4, #67	@ 0x43
 80012e4:	f7ff fe06 	bl	8000ef4 <ld_16>
 80012e8:	4683      	mov	fp, r0
		if (tsect == 0) tsect = ld_32(fs->win + BPB_TotSec32);
 80012ea:	b920      	cbnz	r0, 80012f6 <mount_volume+0xfe>
 80012ec:	f104 0050 	add.w	r0, r4, #80	@ 0x50
 80012f0:	f7ff fe05 	bl	8000efe <ld_32>
 80012f4:	4683      	mov	fp, r0
		nrsv = ld_16(fs->win + BPB_RsvdSecCnt);			/* Number of reserved sectors */
 80012f6:	f104 003e 	add.w	r0, r4, #62	@ 0x3e
 80012fa:	f7ff fdfb 	bl	8000ef4 <ld_16>
		if (nrsv == 0) return FR_NO_FILESYSTEM;			/* (Must not be 0) */
 80012fe:	4602      	mov	r2, r0
 8001300:	2800      	cmp	r0, #0
 8001302:	f000 80b4 	beq.w	800146e <mount_volume+0x276>
		sysect = nrsv + fasize + fs->n_rootdir / (SS(fs) / SZDIRE);	/* RSV + FAT + DIR */
 8001306:	eb00 0308 	add.w	r3, r0, r8
 800130a:	eb03 131a 	add.w	r3, r3, sl, lsr #4
		if (tsect < sysect) return FR_NO_FILESYSTEM;	/* (Invalid volume size) */
 800130e:	459b      	cmp	fp, r3
 8001310:	f0c0 80af 	bcc.w	8001472 <mount_volume+0x27a>
		nclst = (tsect - sysect) / fs->csize;			/* Number of clusters */
 8001314:	ebab 0b03 	sub.w	fp, fp, r3
 8001318:	fbbb f1f9 	udiv	r1, fp, r9
		if (nclst == 0) return FR_NO_FILESYSTEM;		/* (Invalid volume size) */
 800131c:	45cb      	cmp	fp, r9
 800131e:	f0c0 80aa 	bcc.w	8001476 <mount_volume+0x27e>
		if (nclst <= MAX_FAT32) fmt = FS_FAT32;
 8001322:	485c      	ldr	r0, [pc, #368]	@ (8001494 <mount_volume+0x29c>)
 8001324:	4281      	cmp	r1, r0
 8001326:	d806      	bhi.n	8001336 <mount_volume+0x13e>
		if (nclst <= MAX_FAT16) fmt = FS_FAT16;
 8001328:	f64f 70f5 	movw	r0, #65525	@ 0xfff5
 800132c:	4281      	cmp	r1, r0
 800132e:	d83e      	bhi.n	80013ae <mount_volume+0x1b6>
 8001330:	f04f 0b02 	mov.w	fp, #2
 8001334:	e001      	b.n	800133a <mount_volume+0x142>
		fmt = 0;
 8001336:	f04f 0b00 	mov.w	fp, #0
		if (nclst <= MAX_FAT12) fmt = FS_FAT12;
 800133a:	f640 70f5 	movw	r0, #4085	@ 0xff5
 800133e:	4281      	cmp	r1, r0
 8001340:	d938      	bls.n	80013b4 <mount_volume+0x1bc>
		if (fmt == 0) return FR_NO_FILESYSTEM;
 8001342:	f1bb 0f00 	cmp.w	fp, #0
 8001346:	f000 8098 	beq.w	800147a <mount_volume+0x282>
		fs->n_fatent = nclst + 2;						/* Number of FAT entries */
 800134a:	f101 0902 	add.w	r9, r1, #2
 800134e:	f8c4 9014 	str.w	r9, [r4, #20]
		fs->volbase = bsect;							/* Volume start sector */
 8001352:	6226      	str	r6, [r4, #32]
		fs->fatbase = bsect + nrsv; 					/* FAT start sector */
 8001354:	4432      	add	r2, r6
 8001356:	6262      	str	r2, [r4, #36]	@ 0x24
		fs->database = bsect + sysect;					/* Data start sector */
 8001358:	4433      	add	r3, r6
 800135a:	62e3      	str	r3, [r4, #44]	@ 0x2c
		if (fmt == FS_FAT32) {
 800135c:	f1bb 0f03 	cmp.w	fp, #3
 8001360:	d02b      	beq.n	80013ba <mount_volume+0x1c2>
			if (fs->n_rootdir == 0)	return FR_NO_FILESYSTEM;	/* (BPB_RootEntCnt must not be 0) */
 8001362:	f1ba 0f00 	cmp.w	sl, #0
 8001366:	f000 808e 	beq.w	8001486 <mount_volume+0x28e>
			fs->dirbase = fs->fatbase + fasize;			/* Root directory start sector */
 800136a:	4442      	add	r2, r8
 800136c:	62a2      	str	r2, [r4, #40]	@ 0x28
				fs->n_fatent * 2 : fs->n_fatent * 3 / 2 + (fs->n_fatent & 1);
 800136e:	f1bb 0f02 	cmp.w	fp, #2
 8001372:	d033      	beq.n	80013dc <mount_volume+0x1e4>
 8001374:	eb09 0349 	add.w	r3, r9, r9, lsl #1
 8001378:	f009 0901 	and.w	r9, r9, #1
 800137c:	eb09 0953 	add.w	r9, r9, r3, lsr #1
		if (fs->fsize < (szbfat + (SS(fs) - 1)) / SS(fs)) return FR_NO_FILESYSTEM;	/* (BPB_FATSz must not be less than the size needed) */
 8001380:	f209 13ff 	addw	r3, r9, #511	@ 0x1ff
 8001384:	ebb7 2f53 	cmp.w	r7, r3, lsr #9
 8001388:	d37f      	bcc.n	800148a <mount_volume+0x292>
		fs->last_clst = fs->free_clst = 0xFFFFFFFF;		/* Invalidate cluster allocation information */
 800138a:	f04f 33ff 	mov.w	r3, #4294967295	@ 0xffffffff
 800138e:	6123      	str	r3, [r4, #16]
 8001390:	60e3      	str	r3, [r4, #12]
		fs->fsi_flag = 0x80;	/* Disable FSInfo by default */
 8001392:	2380      	movs	r3, #128	@ 0x80
 8001394:	7163      	strb	r3, [r4, #5]
		if (fmt == FS_FAT32
 8001396:	f1bb 0f03 	cmp.w	fp, #3
 800139a:	d022      	beq.n	80013e2 <mount_volume+0x1ea>
	fs->fs_type = (BYTE)fmt;/* FAT sub-type (the filesystem object gets valid) */
 800139c:	f884 b000 	strb.w	fp, [r4]
	fs->id = ++Fsid;		/* Volume mount ID */
 80013a0:	4a3d      	ldr	r2, [pc, #244]	@ (8001498 <mount_volume+0x2a0>)
 80013a2:	8813      	ldrh	r3, [r2, #0]
 80013a4:	3301      	adds	r3, #1
 80013a6:	b29b      	uxth	r3, r3
 80013a8:	8013      	strh	r3, [r2, #0]
 80013aa:	80e3      	strh	r3, [r4, #6]
	return FR_OK;
 80013ac:	e048      	b.n	8001440 <mount_volume+0x248>
 80013ae:	f04f 0b03 	mov.w	fp, #3
 80013b2:	e7c6      	b.n	8001342 <mount_volume+0x14a>
		if (nclst <= MAX_FAT12) fmt = FS_FAT12;
 80013b4:	f04f 0b01 	mov.w	fp, #1
 80013b8:	e7c7      	b.n	800134a <mount_volume+0x152>
			if (ld_16(fs->win + BPB_FSVer32) != 0) return FR_NO_FILESYSTEM;	/* (Must be FAT32 revision 0.0) */
 80013ba:	f104 005a 	add.w	r0, r4, #90	@ 0x5a
 80013be:	f7ff fd99 	bl	8000ef4 <ld_16>
 80013c2:	2800      	cmp	r0, #0
 80013c4:	d15b      	bne.n	800147e <mount_volume+0x286>
			if (fs->n_rootdir != 0) return FR_NO_FILESYSTEM;	/* (BPB_RootEntCnt must be 0) */
 80013c6:	f1ba 0f00 	cmp.w	sl, #0
 80013ca:	d15a      	bne.n	8001482 <mount_volume+0x28a>
			fs->dirbase = ld_32(fs->win + BPB_RootClus32);	/* Root directory start cluster */
 80013cc:	f104 005c 	add.w	r0, r4, #92	@ 0x5c
 80013d0:	f7ff fd95 	bl	8000efe <ld_32>
 80013d4:	62a0      	str	r0, [r4, #40]	@ 0x28
			szbfat = fs->n_fatent * 4;					/* (Needed FAT size) */
 80013d6:	ea4f 0989 	mov.w	r9, r9, lsl #2
 80013da:	e7d1      	b.n	8001380 <mount_volume+0x188>
				fs->n_fatent * 2 : fs->n_fatent * 3 / 2 + (fs->n_fatent & 1);
 80013dc:	ea4f 0949 	mov.w	r9, r9, lsl #1
 80013e0:	e7ce      	b.n	8001380 <mount_volume+0x188>
			&& ld_16(fs->win + BPB_FSInfo32) == 1	/* FAT32: Enable FSInfo feature only if FSInfo sector is next to VBR */
 80013e2:	f104 0060 	add.w	r0, r4, #96	@ 0x60
 80013e6:	f7ff fd85 	bl	8000ef4 <ld_16>
 80013ea:	2801      	cmp	r0, #1
 80013ec:	d1d6      	bne.n	800139c <mount_volume+0x1a4>
			&& move_window(fs, bsect + 1) == FR_OK)
 80013ee:	1c71      	adds	r1, r6, #1
 80013f0:	4620      	mov	r0, r4
 80013f2:	f7ff fe43 	bl	800107c <move_window>
 80013f6:	2800      	cmp	r0, #0
 80013f8:	d1d0      	bne.n	800139c <mount_volume+0x1a4>
			fs->fsi_flag = 0;
 80013fa:	2300      	movs	r3, #0
 80013fc:	7163      	strb	r3, [r4, #5]
			if (   ld_32(fs->win + FSI_LeadSig) == 0x41615252	/* Load FSInfo data if available */
 80013fe:	f104 0030 	add.w	r0, r4, #48	@ 0x30
 8001402:	f7ff fd7c 	bl	8000efe <ld_32>
 8001406:	4b25      	ldr	r3, [pc, #148]	@ (800149c <mount_volume+0x2a4>)
 8001408:	4298      	cmp	r0, r3
 800140a:	d1c7      	bne.n	800139c <mount_volume+0x1a4>
				&& ld_32(fs->win + FSI_StrucSig) == 0x61417272
 800140c:	f504 7005 	add.w	r0, r4, #532	@ 0x214
 8001410:	f7ff fd75 	bl	8000efe <ld_32>
 8001414:	4b22      	ldr	r3, [pc, #136]	@ (80014a0 <mount_volume+0x2a8>)
 8001416:	4298      	cmp	r0, r3
 8001418:	d1c0      	bne.n	800139c <mount_volume+0x1a4>
				&& ld_32(fs->win + FSI_TrailSig) == 0xAA550000)
 800141a:	f504 700b 	add.w	r0, r4, #556	@ 0x22c
 800141e:	f7ff fd6e 	bl	8000efe <ld_32>
 8001422:	4b20      	ldr	r3, [pc, #128]	@ (80014a4 <mount_volume+0x2ac>)
 8001424:	4298      	cmp	r0, r3
 8001426:	d1b9      	bne.n	800139c <mount_volume+0x1a4>
				fs->free_clst = ld_32(fs->win + FSI_Free_Count);
 8001428:	f504 7006 	add.w	r0, r4, #536	@ 0x218
 800142c:	f7ff fd67 	bl	8000efe <ld_32>
 8001430:	6120      	str	r0, [r4, #16]
				fs->last_clst = ld_32(fs->win + FSI_Nxt_Free);
 8001432:	f504 7007 	add.w	r0, r4, #540	@ 0x21c
 8001436:	f7ff fd62 	bl	8000efe <ld_32>
 800143a:	60e0      	str	r0, [r4, #12]
 800143c:	e7ae      	b.n	800139c <mount_volume+0x1a4>
	if (vol < 0) return FR_INVALID_DRIVE;
 800143e:	250b      	movs	r5, #11
}
 8001440:	4628      	mov	r0, r5
 8001442:	e8bd 8ff8 	ldmia.w	sp!, {r3, r4, r5, r6, r7, r8, r9, sl, fp, pc}
	if (!fs) return FR_NOT_ENABLED;		/* Is the filesystem object available? */
 8001446:	250c      	movs	r5, #12
 8001448:	e7fa      	b.n	8001440 <mount_volume+0x248>
		return FR_NOT_READY;			/* Failed to initialize due to no medium or hard error */
 800144a:	2503      	movs	r5, #3
 800144c:	e7f8      	b.n	8001440 <mount_volume+0x248>
		return FR_WRITE_PROTECTED;
 800144e:	250a      	movs	r5, #10
 8001450:	e7f6      	b.n	8001440 <mount_volume+0x248>
	if (fmt == 4) return FR_DISK_ERR;		/* An error occurred in the disk I/O layer */
 8001452:	2501      	movs	r5, #1
 8001454:	e7f4      	b.n	8001440 <mount_volume+0x248>
	if (fmt >= 2) return FR_NO_FILESYSTEM;	/* No FAT volume is found */
 8001456:	250d      	movs	r5, #13
 8001458:	e7f2      	b.n	8001440 <mount_volume+0x248>
		if (ld_16(fs->win + BPB_BytsPerSec) != SS(fs)) return FR_NO_FILESYSTEM;	/* (BPB_BytsPerSec must be equal to the physical sector size) */
 800145a:	250d      	movs	r5, #13
 800145c:	e7f0      	b.n	8001440 <mount_volume+0x248>
		if (fs->n_fats != 1 && fs->n_fats != 2) return FR_NO_FILESYSTEM;	/* (Must be 1 or 2) */
 800145e:	250d      	movs	r5, #13
 8001460:	e7ee      	b.n	8001440 <mount_volume+0x248>
		if (fs->csize == 0 || (fs->csize & (fs->csize - 1))) return FR_NO_FILESYSTEM;	/* (Must be power of 2) */
 8001462:	250d      	movs	r5, #13
 8001464:	e7ec      	b.n	8001440 <mount_volume+0x248>
 8001466:	250d      	movs	r5, #13
 8001468:	e7ea      	b.n	8001440 <mount_volume+0x248>
		if (fs->n_rootdir % (SS(fs) / SZDIRE)) return FR_NO_FILESYSTEM;	/* (Must be sector aligned) */
 800146a:	250d      	movs	r5, #13
 800146c:	e7e8      	b.n	8001440 <mount_volume+0x248>
		if (nrsv == 0) return FR_NO_FILESYSTEM;			/* (Must not be 0) */
 800146e:	250d      	movs	r5, #13
 8001470:	e7e6      	b.n	8001440 <mount_volume+0x248>
		if (tsect < sysect) return FR_NO_FILESYSTEM;	/* (Invalid volume size) */
 8001472:	250d      	movs	r5, #13
 8001474:	e7e4      	b.n	8001440 <mount_volume+0x248>
		if (nclst == 0) return FR_NO_FILESYSTEM;		/* (Invalid volume size) */
 8001476:	250d      	movs	r5, #13
 8001478:	e7e2      	b.n	8001440 <mount_volume+0x248>
		if (fmt == 0) return FR_NO_FILESYSTEM;
 800147a:	250d      	movs	r5, #13
 800147c:	e7e0      	b.n	8001440 <mount_volume+0x248>
			if (ld_16(fs->win + BPB_FSVer32) != 0) return FR_NO_FILESYSTEM;	/* (Must be FAT32 revision 0.0) */
 800147e:	250d      	movs	r5, #13
 8001480:	e7de      	b.n	8001440 <mount_volume+0x248>
			if (fs->n_rootdir != 0) return FR_NO_FILESYSTEM;	/* (BPB_RootEntCnt must be 0) */
 8001482:	250d      	movs	r5, #13
 8001484:	e7dc      	b.n	8001440 <mount_volume+0x248>
			if (fs->n_rootdir == 0)	return FR_NO_FILESYSTEM;	/* (BPB_RootEntCnt must not be 0) */
 8001486:	250d      	movs	r5, #13
 8001488:	e7da      	b.n	8001440 <mount_volume+0x248>
		if (fs->fsize < (szbfat + (SS(fs) - 1)) / SS(fs)) return FR_NO_FILESYSTEM;	/* (BPB_FATSz must not be less than the size needed) */
 800148a:	250d      	movs	r5, #13
 800148c:	e7d8      	b.n	8001440 <mount_volume+0x248>
 800148e:	bf00      	nop
 8001490:	20001018 	.word	0x20001018
 8001494:	0ffffff5 	.word	0x0ffffff5
 8001498:	20001014 	.word	0x20001014
 800149c:	41615252 	.word	0x41615252
 80014a0:	61417272 	.word	0x61417272
 80014a4:	aa550000 	.word	0xaa550000

080014a8 <put_fat>:
{
 80014a8:	e92d 47f0 	stmdb	sp!, {r4, r5, r6, r7, r8, r9, sl, lr}
	if (clst >= 2 && clst < fs->n_fatent) {	/* Check if in valid range */
 80014ac:	2901      	cmp	r1, #1
 80014ae:	d975      	bls.n	800159c <put_fat+0xf4>
 80014b0:	4607      	mov	r7, r0
 80014b2:	460c      	mov	r4, r1
 80014b4:	4616      	mov	r6, r2
 80014b6:	6943      	ldr	r3, [r0, #20]
 80014b8:	428b      	cmp	r3, r1
 80014ba:	d973      	bls.n	80015a4 <put_fat+0xfc>
		switch (fs->fs_type) {
 80014bc:	7803      	ldrb	r3, [r0, #0]
 80014be:	2b02      	cmp	r3, #2
 80014c0:	d03e      	beq.n	8001540 <put_fat+0x98>
 80014c2:	2b03      	cmp	r3, #3
 80014c4:	d04f      	beq.n	8001566 <put_fat+0xbe>
 80014c6:	2b01      	cmp	r3, #1
 80014c8:	d16e      	bne.n	80015a8 <put_fat+0x100>
			bc = (UINT)clst; bc += bc / 2;	/* bc: byte offset of the entry */
 80014ca:	eb01 0851 	add.w	r8, r1, r1, lsr #1
			res = move_window(fs, fs->fatbase + (bc / SS(fs)));
 80014ce:	6a41      	ldr	r1, [r0, #36]	@ 0x24
 80014d0:	eb01 2158 	add.w	r1, r1, r8, lsr #9
 80014d4:	f7ff fdd2 	bl	800107c <move_window>
			if (res != FR_OK) break;
 80014d8:	4605      	mov	r5, r0
 80014da:	2800      	cmp	r0, #0
 80014dc:	d15f      	bne.n	800159e <put_fat+0xf6>
			p = fs->win + bc++ % SS(fs);
 80014de:	f107 0a30 	add.w	sl, r7, #48	@ 0x30
 80014e2:	f108 0901 	add.w	r9, r8, #1
 80014e6:	f3c8 0808 	ubfx	r8, r8, #0, #9
			*p = (clst & 1) ? ((*p & 0x0F) | ((BYTE)val << 4)) : (BYTE)val;	/* Update 1st byte */
 80014ea:	f014 0401 	ands.w	r4, r4, #1
 80014ee:	d01d      	beq.n	800152c <put_fat+0x84>
 80014f0:	f81a 3008 	ldrb.w	r3, [sl, r8]
 80014f4:	f003 030f 	and.w	r3, r3, #15
 80014f8:	ea43 1306 	orr.w	r3, r3, r6, lsl #4
 80014fc:	b2db      	uxtb	r3, r3
 80014fe:	f80a 3008 	strb.w	r3, [sl, r8]
			fs->wflag = 1;
 8001502:	2301      	movs	r3, #1
 8001504:	713b      	strb	r3, [r7, #4]
			res = move_window(fs, fs->fatbase + (bc / SS(fs)));
 8001506:	6a79      	ldr	r1, [r7, #36]	@ 0x24
 8001508:	eb01 2159 	add.w	r1, r1, r9, lsr #9
 800150c:	4638      	mov	r0, r7
 800150e:	f7ff fdb5 	bl	800107c <move_window>
			if (res != FR_OK) break;
 8001512:	4605      	mov	r5, r0
 8001514:	2800      	cmp	r0, #0
 8001516:	d142      	bne.n	800159e <put_fat+0xf6>
			p = fs->win + bc % SS(fs);
 8001518:	f3c9 0908 	ubfx	r9, r9, #0, #9
			*p = (clst & 1) ? (BYTE)(val >> 4) : ((*p & 0xF0) | ((BYTE)(val >> 8) & 0x0F));	/* Update 2nd byte */
 800151c:	b144      	cbz	r4, 8001530 <put_fat+0x88>
 800151e:	f3c6 1307 	ubfx	r3, r6, #4, #8
 8001522:	f80a 3009 	strb.w	r3, [sl, r9]
			fs->wflag = 1;
 8001526:	2301      	movs	r3, #1
 8001528:	713b      	strb	r3, [r7, #4]
			break;
 800152a:	e038      	b.n	800159e <put_fat+0xf6>
			*p = (clst & 1) ? ((*p & 0x0F) | ((BYTE)val << 4)) : (BYTE)val;	/* Update 1st byte */
 800152c:	b2f3      	uxtb	r3, r6
 800152e:	e7e6      	b.n	80014fe <put_fat+0x56>
			*p = (clst & 1) ? (BYTE)(val >> 4) : ((*p & 0xF0) | ((BYTE)(val >> 8) & 0x0F));	/* Update 2nd byte */
 8001530:	f81a 3009 	ldrb.w	r3, [sl, r9]
 8001534:	f3c6 2203 	ubfx	r2, r6, #8, #4
 8001538:	f023 030f 	bic.w	r3, r3, #15
 800153c:	4313      	orrs	r3, r2
 800153e:	e7f0      	b.n	8001522 <put_fat+0x7a>
			res = move_window(fs, fs->fatbase + (clst / (SS(fs) / 2)));
 8001540:	6a41      	ldr	r1, [r0, #36]	@ 0x24
 8001542:	eb01 2114 	add.w	r1, r1, r4, lsr #8
 8001546:	f7ff fd99 	bl	800107c <move_window>
			if (res != FR_OK) break;
 800154a:	4605      	mov	r5, r0
 800154c:	bb38      	cbnz	r0, 800159e <put_fat+0xf6>
			st_16(fs->win + clst * 2 % SS(fs), (WORD)val);	/* Simple WORD array */
 800154e:	f107 0030 	add.w	r0, r7, #48	@ 0x30
 8001552:	0064      	lsls	r4, r4, #1
 8001554:	f404 74ff 	and.w	r4, r4, #510	@ 0x1fe
 8001558:	b2b1      	uxth	r1, r6
 800155a:	4420      	add	r0, r4
 800155c:	f7ff fcda 	bl	8000f14 <st_16>
			fs->wflag = 1;
 8001560:	2301      	movs	r3, #1
 8001562:	713b      	strb	r3, [r7, #4]
			break;
 8001564:	e01b      	b.n	800159e <put_fat+0xf6>
			res = move_window(fs, fs->fatbase + (clst / (SS(fs) / 4)));
 8001566:	6a41      	ldr	r1, [r0, #36]	@ 0x24
 8001568:	eb01 11d4 	add.w	r1, r1, r4, lsr #7
 800156c:	f7ff fd86 	bl	800107c <move_window>
			if (res != FR_OK) break;
 8001570:	4605      	mov	r5, r0
 8001572:	b9a0      	cbnz	r0, 800159e <put_fat+0xf6>
				val = (val & 0x0FFFFFFF) | (ld_32(fs->win + clst * 4 % SS(fs)) & 0xF0000000);
 8001574:	f026 4670 	bic.w	r6, r6, #4026531840	@ 0xf0000000
 8001578:	f107 0330 	add.w	r3, r7, #48	@ 0x30
 800157c:	00a4      	lsls	r4, r4, #2
 800157e:	f404 74fe 	and.w	r4, r4, #508	@ 0x1fc
 8001582:	441c      	add	r4, r3
 8001584:	4620      	mov	r0, r4
 8001586:	f7ff fcba 	bl	8000efe <ld_32>
 800158a:	f000 4170 	and.w	r1, r0, #4026531840	@ 0xf0000000
			st_32(fs->win + clst * 4 % SS(fs), val);
 800158e:	4331      	orrs	r1, r6
 8001590:	4620      	mov	r0, r4
 8001592:	f7ff fcc3 	bl	8000f1c <st_32>
			fs->wflag = 1;
 8001596:	2301      	movs	r3, #1
 8001598:	713b      	strb	r3, [r7, #4]
			break;
 800159a:	e000      	b.n	800159e <put_fat+0xf6>
	FRESULT res = FR_INT_ERR;
 800159c:	2502      	movs	r5, #2
}
 800159e:	4628      	mov	r0, r5
 80015a0:	e8bd 87f0 	ldmia.w	sp!, {r4, r5, r6, r7, r8, r9, sl, pc}
	FRESULT res = FR_INT_ERR;
 80015a4:	2502      	movs	r5, #2
 80015a6:	e7fa      	b.n	800159e <put_fat+0xf6>
		switch (fs->fs_type) {
 80015a8:	2502      	movs	r5, #2
 80015aa:	e7f8      	b.n	800159e <put_fat+0xf6>

080015ac <get_fat>:
{
 80015ac:	b5f8      	push	{r3, r4, r5, r6, r7, lr}
	FATFS *fs = obj->fs;
 80015ae:	6805      	ldr	r5, [r0, #0]
	if (clst < 2 || clst >= fs->n_fatent) {	/* Check if in valid range */
 80015b0:	2901      	cmp	r1, #1
 80015b2:	d954      	bls.n	800165e <get_fat+0xb2>
 80015b4:	460c      	mov	r4, r1
 80015b6:	696b      	ldr	r3, [r5, #20]
 80015b8:	428b      	cmp	r3, r1
 80015ba:	d952      	bls.n	8001662 <get_fat+0xb6>
		switch (fs->fs_type) {
 80015bc:	782b      	ldrb	r3, [r5, #0]
 80015be:	2b02      	cmp	r3, #2
 80015c0:	d02b      	beq.n	800161a <get_fat+0x6e>
 80015c2:	2b03      	cmp	r3, #3
 80015c4:	d039      	beq.n	800163a <get_fat+0x8e>
 80015c6:	2b01      	cmp	r3, #1
 80015c8:	d14d      	bne.n	8001666 <get_fat+0xba>
			bc = (UINT)clst; bc += bc / 2;
 80015ca:	eb01 0651 	add.w	r6, r1, r1, lsr #1
			if (move_window(fs, fs->fatbase + (bc / SS(fs))) != FR_OK) break;
 80015ce:	6a69      	ldr	r1, [r5, #36]	@ 0x24
 80015d0:	eb01 2156 	add.w	r1, r1, r6, lsr #9
 80015d4:	4628      	mov	r0, r5
 80015d6:	f7ff fd51 	bl	800107c <move_window>
 80015da:	b110      	cbz	r0, 80015e2 <get_fat+0x36>
		val = 0xFFFFFFFF;	/* Default value falls on disk error */
 80015dc:	f04f 30ff 	mov.w	r0, #4294967295	@ 0xffffffff
 80015e0:	e03e      	b.n	8001660 <get_fat+0xb4>
			wc = fs->win[bc++ % SS(fs)];		/* Get 1st byte of the entry */
 80015e2:	1c77      	adds	r7, r6, #1
 80015e4:	f3c6 0608 	ubfx	r6, r6, #0, #9
 80015e8:	442e      	add	r6, r5
 80015ea:	f896 6030 	ldrb.w	r6, [r6, #48]	@ 0x30
			if (move_window(fs, fs->fatbase + (bc / SS(fs))) != FR_OK) break;
 80015ee:	6a69      	ldr	r1, [r5, #36]	@ 0x24
 80015f0:	eb01 2157 	add.w	r1, r1, r7, lsr #9
 80015f4:	4628      	mov	r0, r5
 80015f6:	f7ff fd41 	bl	800107c <move_window>
 80015fa:	bbb0      	cbnz	r0, 800166a <get_fat+0xbe>
			wc |= fs->win[bc % SS(fs)] << 8;	/* Merge 2nd byte of the entry */
 80015fc:	f3c7 0708 	ubfx	r7, r7, #0, #9
 8001600:	442f      	add	r7, r5
 8001602:	f897 3030 	ldrb.w	r3, [r7, #48]	@ 0x30
 8001606:	ea46 2003 	orr.w	r0, r6, r3, lsl #8
			val = (clst & 1) ? (wc >> 4) : (wc & 0xFFF);	/* Adjust bit position */
 800160a:	f014 0f01 	tst.w	r4, #1
 800160e:	d001      	beq.n	8001614 <get_fat+0x68>
 8001610:	0900      	lsrs	r0, r0, #4
 8001612:	e025      	b.n	8001660 <get_fat+0xb4>
 8001614:	f3c0 000b 	ubfx	r0, r0, #0, #12
 8001618:	e022      	b.n	8001660 <get_fat+0xb4>
			if (move_window(fs, fs->fatbase + (clst / (SS(fs) / 2))) != FR_OK) break;
 800161a:	6a69      	ldr	r1, [r5, #36]	@ 0x24
 800161c:	eb01 2114 	add.w	r1, r1, r4, lsr #8
 8001620:	4628      	mov	r0, r5
 8001622:	f7ff fd2b 	bl	800107c <move_window>
 8001626:	bb18      	cbnz	r0, 8001670 <get_fat+0xc4>
			val = ld_16(fs->win + clst * 2 % SS(fs));		/* Simple WORD array */
 8001628:	f105 0030 	add.w	r0, r5, #48	@ 0x30
 800162c:	0064      	lsls	r4, r4, #1
 800162e:	f404 74ff 	and.w	r4, r4, #510	@ 0x1fe
 8001632:	4420      	add	r0, r4
 8001634:	f7ff fc5e 	bl	8000ef4 <ld_16>
			break;
 8001638:	e012      	b.n	8001660 <get_fat+0xb4>
			if (move_window(fs, fs->fatbase + (clst / (SS(fs) / 4))) != FR_OK) break;
 800163a:	6a69      	ldr	r1, [r5, #36]	@ 0x24
 800163c:	eb01 11d4 	add.w	r1, r1, r4, lsr #7
 8001640:	4628      	mov	r0, r5
 8001642:	f7ff fd1b 	bl	800107c <move_window>
 8001646:	b9b0      	cbnz	r0, 8001676 <get_fat+0xca>
			val = ld_32(fs->win + clst * 4 % SS(fs)) & 0x0FFFFFFF;	/* Simple DWORD array but mask out upper 4 bits */
 8001648:	f105 0030 	add.w	r0, r5, #48	@ 0x30
 800164c:	00a4      	lsls	r4, r4, #2
 800164e:	f404 74fe 	and.w	r4, r4, #508	@ 0x1fc
 8001652:	4420      	add	r0, r4
 8001654:	f7ff fc53 	bl	8000efe <ld_32>
 8001658:	f020 4070 	bic.w	r0, r0, #4026531840	@ 0xf0000000
			break;
 800165c:	e000      	b.n	8001660 <get_fat+0xb4>
		val = 1;	/* Internal error */
 800165e:	2001      	movs	r0, #1
}
 8001660:	bdf8      	pop	{r3, r4, r5, r6, r7, pc}
		val = 1;	/* Internal error */
 8001662:	2001      	movs	r0, #1
 8001664:	e7fc      	b.n	8001660 <get_fat+0xb4>
		switch (fs->fs_type) {
 8001666:	2001      	movs	r0, #1
 8001668:	e7fa      	b.n	8001660 <get_fat+0xb4>
		val = 0xFFFFFFFF;	/* Default value falls on disk error */
 800166a:	f04f 30ff 	mov.w	r0, #4294967295	@ 0xffffffff
 800166e:	e7f7      	b.n	8001660 <get_fat+0xb4>
 8001670:	f04f 30ff 	mov.w	r0, #4294967295	@ 0xffffffff
 8001674:	e7f4      	b.n	8001660 <get_fat+0xb4>
 8001676:	f04f 30ff 	mov.w	r0, #4294967295	@ 0xffffffff
	return val;
 800167a:	e7f1      	b.n	8001660 <get_fat+0xb4>

0800167c <dir_sdi>:
{
 800167c:	e92d 41f0 	stmdb	sp!, {r4, r5, r6, r7, r8, lr}
	FATFS *fs = dp->obj.fs;
 8001680:	f8d0 8000 	ldr.w	r8, [r0]
	if (ofs >= (DWORD)((FF_FS_EXFAT && fs->fs_type == FS_EXFAT) ? MAX_DIR_EX : MAX_DIR) || ofs % SZDIRE) {	/* Check range of offset and alignment */
 8001684:	f5b1 1f00 	cmp.w	r1, #2097152	@ 0x200000
 8001688:	d23f      	bcs.n	800170a <dir_sdi+0x8e>
 800168a:	4607      	mov	r7, r0
 800168c:	460e      	mov	r6, r1
 800168e:	f011 0f1f 	tst.w	r1, #31
 8001692:	d13d      	bne.n	8001710 <dir_sdi+0x94>
	dp->dptr = ofs;				/* Set current offset */
 8001694:	6101      	str	r1, [r0, #16]
	clst = dp->obj.sclust;		/* Table start cluster (0:root) */
 8001696:	6884      	ldr	r4, [r0, #8]
	if (clst == 0 && fs->fs_type >= FS_FAT32) {	/* Replace cluster# 0 with root cluster# */
 8001698:	b9e4      	cbnz	r4, 80016d4 <dir_sdi+0x58>
 800169a:	f898 3000 	ldrb.w	r3, [r8]
 800169e:	2b02      	cmp	r3, #2
 80016a0:	d901      	bls.n	80016a6 <dir_sdi+0x2a>
		clst = (DWORD)fs->dirbase;
 80016a2:	f8d8 4028 	ldr.w	r4, [r8, #40]	@ 0x28
	if (clst == 0) {	/* Static table (root-directory on the FAT volume) */
 80016a6:	b9ac      	cbnz	r4, 80016d4 <dir_sdi+0x58>
		if (ofs / SZDIRE >= fs->n_rootdir) return FR_INT_ERR;	/* Is index out of range? */
 80016a8:	f8b8 3008 	ldrh.w	r3, [r8, #8]
 80016ac:	ebb3 1f56 	cmp.w	r3, r6, lsr #5
 80016b0:	d930      	bls.n	8001714 <dir_sdi+0x98>
		dp->sect = fs->dirbase;
 80016b2:	f8d8 3028 	ldr.w	r3, [r8, #40]	@ 0x28
 80016b6:	61bb      	str	r3, [r7, #24]
	dp->clust = clst;					/* Current cluster# */
 80016b8:	617c      	str	r4, [r7, #20]
	if (dp->sect == 0) return FR_INT_ERR;
 80016ba:	69bb      	ldr	r3, [r7, #24]
 80016bc:	b393      	cbz	r3, 8001724 <dir_sdi+0xa8>
	dp->sect += ofs / SS(fs);			/* Sector# of the directory entry */
 80016be:	eb03 2356 	add.w	r3, r3, r6, lsr #9
 80016c2:	61bb      	str	r3, [r7, #24]
	dp->dir = fs->win + (ofs % SS(fs));	/* Pointer to the entry in the win[] */
 80016c4:	f108 0830 	add.w	r8, r8, #48	@ 0x30
 80016c8:	f3c6 0108 	ubfx	r1, r6, #0, #9
 80016cc:	4441      	add	r1, r8
 80016ce:	61f9      	str	r1, [r7, #28]
	return FR_OK;
 80016d0:	2000      	movs	r0, #0
 80016d2:	e01b      	b.n	800170c <dir_sdi+0x90>
		csz = (DWORD)fs->csize * SS(fs);	/* Bytes per cluster */
 80016d4:	f8b8 500a 	ldrh.w	r5, [r8, #10]
 80016d8:	026d      	lsls	r5, r5, #9
		while (ofs >= csz) {				/* Follow cluster chain */
 80016da:	42ae      	cmp	r6, r5
 80016dc:	d30f      	bcc.n	80016fe <dir_sdi+0x82>
			clst = get_fat(&dp->obj, clst);				/* Get next cluster */
 80016de:	4621      	mov	r1, r4
 80016e0:	4638      	mov	r0, r7
 80016e2:	f7ff ff63 	bl	80015ac <get_fat>
 80016e6:	4604      	mov	r4, r0
			if (clst == 0xFFFFFFFF) return FR_DISK_ERR;	/* Disk error */
 80016e8:	f1b0 3fff 	cmp.w	r0, #4294967295	@ 0xffffffff
 80016ec:	d014      	beq.n	8001718 <dir_sdi+0x9c>
			if (clst < 2 || clst >= fs->n_fatent) return FR_INT_ERR;	/* Reached to end of table or internal error */
 80016ee:	2801      	cmp	r0, #1
 80016f0:	d914      	bls.n	800171c <dir_sdi+0xa0>
 80016f2:	f8d8 3014 	ldr.w	r3, [r8, #20]
 80016f6:	4283      	cmp	r3, r0
 80016f8:	d912      	bls.n	8001720 <dir_sdi+0xa4>
			ofs -= csz;
 80016fa:	1b76      	subs	r6, r6, r5
 80016fc:	e7ed      	b.n	80016da <dir_sdi+0x5e>
		dp->sect = clst2sect(fs, clst);
 80016fe:	4621      	mov	r1, r4
 8001700:	4640      	mov	r0, r8
 8001702:	f7ff fc19 	bl	8000f38 <clst2sect>
 8001706:	61b8      	str	r0, [r7, #24]
 8001708:	e7d6      	b.n	80016b8 <dir_sdi+0x3c>
		return FR_INT_ERR;
 800170a:	2002      	movs	r0, #2
}
 800170c:	e8bd 81f0 	ldmia.w	sp!, {r4, r5, r6, r7, r8, pc}
		return FR_INT_ERR;
 8001710:	2002      	movs	r0, #2
 8001712:	e7fb      	b.n	800170c <dir_sdi+0x90>
		if (ofs / SZDIRE >= fs->n_rootdir) return FR_INT_ERR;	/* Is index out of range? */
 8001714:	2002      	movs	r0, #2
 8001716:	e7f9      	b.n	800170c <dir_sdi+0x90>
			if (clst == 0xFFFFFFFF) return FR_DISK_ERR;	/* Disk error */
 8001718:	2001      	movs	r0, #1
 800171a:	e7f7      	b.n	800170c <dir_sdi+0x90>
			if (clst < 2 || clst >= fs->n_fatent) return FR_INT_ERR;	/* Reached to end of table or internal error */
 800171c:	2002      	movs	r0, #2
 800171e:	e7f5      	b.n	800170c <dir_sdi+0x90>
 8001720:	2002      	movs	r0, #2
 8001722:	e7f3      	b.n	800170c <dir_sdi+0x90>
	if (dp->sect == 0) return FR_INT_ERR;
 8001724:	2002      	movs	r0, #2
 8001726:	e7f1      	b.n	800170c <dir_sdi+0x90>

08001728 <create_chain>:
{
 8001728:	e92d 43f8 	stmdb	sp!, {r3, r4, r5, r6, r7, r8, r9, lr}
 800172c:	4606      	mov	r6, r0
	FATFS *fs = obj->fs;
 800172e:	6807      	ldr	r7, [r0, #0]
	if (clst == 0) {	/* Create a new chain */
 8001730:	4688      	mov	r8, r1
 8001732:	b931      	cbnz	r1, 8001742 <create_chain+0x1a>
		scl = fs->last_clst;				/* Suggested cluster to start to find */
 8001734:	68fd      	ldr	r5, [r7, #12]
		if (scl == 0 || scl >= fs->n_fatent) scl = 1;
 8001736:	b18d      	cbz	r5, 800175c <create_chain+0x34>
 8001738:	697b      	ldr	r3, [r7, #20]
 800173a:	42ab      	cmp	r3, r5
 800173c:	d80f      	bhi.n	800175e <create_chain+0x36>
 800173e:	2501      	movs	r5, #1
 8001740:	e00d      	b.n	800175e <create_chain+0x36>
		cs = get_fat(obj, clst);			/* Check the cluster status */
 8001742:	f7ff ff33 	bl	80015ac <get_fat>
 8001746:	4603      	mov	r3, r0
		if (cs < 2) return 1;				/* Test for insanity */
 8001748:	2801      	cmp	r0, #1
 800174a:	d979      	bls.n	8001840 <create_chain+0x118>
		if (cs == 0xFFFFFFFF) return cs;	/* Test for disk error */
 800174c:	f1b0 3fff 	cmp.w	r0, #4294967295	@ 0xffffffff
 8001750:	d070      	beq.n	8001834 <create_chain+0x10c>
		if (cs < fs->n_fatent) return cs;	/* It is already followed by next cluster */
 8001752:	697a      	ldr	r2, [r7, #20]
 8001754:	4282      	cmp	r2, r0
 8001756:	d86d      	bhi.n	8001834 <create_chain+0x10c>
		scl = clst;							/* Cluster to start to find */
 8001758:	4645      	mov	r5, r8
 800175a:	e000      	b.n	800175e <create_chain+0x36>
		if (scl == 0 || scl >= fs->n_fatent) scl = 1;
 800175c:	2501      	movs	r5, #1
	if (fs->free_clst == 0) return 0;		/* No free cluster */
 800175e:	693b      	ldr	r3, [r7, #16]
 8001760:	2b00      	cmp	r3, #0
 8001762:	d067      	beq.n	8001834 <create_chain+0x10c>
		if (scl == clst) {						/* Stretching an existing chain? */
 8001764:	4545      	cmp	r5, r8
 8001766:	d006      	beq.n	8001776 <create_chain+0x4e>
		ncl = 0;
 8001768:	f04f 0900 	mov.w	r9, #0
		if (ncl == 0) {	/* The new cluster cannot be contiguous and find another fragment */
 800176c:	f1b9 0f00 	cmp.w	r9, #0
 8001770:	d13a      	bne.n	80017e8 <create_chain+0xc0>
			ncl = scl;	/* Start cluster */
 8001772:	462c      	mov	r4, r5
 8001774:	e02f      	b.n	80017d6 <create_chain+0xae>
			ncl = scl + 1;						/* Test if next cluster is free */
 8001776:	f105 0901 	add.w	r9, r5, #1
			if (ncl >= fs->n_fatent) ncl = 2;
 800177a:	697b      	ldr	r3, [r7, #20]
 800177c:	454b      	cmp	r3, r9
 800177e:	d801      	bhi.n	8001784 <create_chain+0x5c>
 8001780:	f04f 0902 	mov.w	r9, #2
			cs = get_fat(obj, ncl);				/* Get next cluster status */
 8001784:	4649      	mov	r1, r9
 8001786:	4630      	mov	r0, r6
 8001788:	f7ff ff10 	bl	80015ac <get_fat>
 800178c:	4603      	mov	r3, r0
			if (cs == 1 || cs == 0xFFFFFFFF) return cs;	/* Test for error */
 800178e:	2801      	cmp	r0, #1
 8001790:	d050      	beq.n	8001834 <create_chain+0x10c>
 8001792:	f1b0 3fff 	cmp.w	r0, #4294967295	@ 0xffffffff
 8001796:	d04d      	beq.n	8001834 <create_chain+0x10c>
			if (cs != 0) {						/* Not free? */
 8001798:	2800      	cmp	r0, #0
 800179a:	d0e7      	beq.n	800176c <create_chain+0x44>
				cs = fs->last_clst;				/* Start at suggested cluster if it is valid */
 800179c:	68fb      	ldr	r3, [r7, #12]
				if (cs >= 2 && cs < fs->n_fatent) scl = cs;
 800179e:	2b01      	cmp	r3, #1
 80017a0:	d905      	bls.n	80017ae <create_chain+0x86>
 80017a2:	697a      	ldr	r2, [r7, #20]
 80017a4:	429a      	cmp	r2, r3
 80017a6:	d805      	bhi.n	80017b4 <create_chain+0x8c>
				ncl = 0;
 80017a8:	f04f 0900 	mov.w	r9, #0
 80017ac:	e7de      	b.n	800176c <create_chain+0x44>
 80017ae:	f04f 0900 	mov.w	r9, #0
 80017b2:	e7db      	b.n	800176c <create_chain+0x44>
				if (cs >= 2 && cs < fs->n_fatent) scl = cs;
 80017b4:	461d      	mov	r5, r3
				ncl = 0;
 80017b6:	f04f 0900 	mov.w	r9, #0
 80017ba:	e7d7      	b.n	800176c <create_chain+0x44>
				cs = get_fat(obj, ncl);			/* Get the cluster status */
 80017bc:	4621      	mov	r1, r4
 80017be:	4630      	mov	r0, r6
 80017c0:	f7ff fef4 	bl	80015ac <get_fat>
				if (cs == 0) break;				/* Found a free cluster? */
 80017c4:	4603      	mov	r3, r0
 80017c6:	b170      	cbz	r0, 80017e6 <create_chain+0xbe>
				if (cs == 1 || cs == 0xFFFFFFFF) return cs;	/* Test for error */
 80017c8:	2801      	cmp	r0, #1
 80017ca:	d033      	beq.n	8001834 <create_chain+0x10c>
 80017cc:	f1b0 3fff 	cmp.w	r0, #4294967295	@ 0xffffffff
 80017d0:	d030      	beq.n	8001834 <create_chain+0x10c>
				if (ncl == scl) return 0;		/* No free cluster found? */
 80017d2:	42ac      	cmp	r4, r5
 80017d4:	d038      	beq.n	8001848 <create_chain+0x120>
				ncl++;							/* Next cluster */
 80017d6:	3401      	adds	r4, #1
				if (ncl >= fs->n_fatent) {		/* Check wrap-around */
 80017d8:	697b      	ldr	r3, [r7, #20]
 80017da:	42a3      	cmp	r3, r4
 80017dc:	d8ee      	bhi.n	80017bc <create_chain+0x94>
					if (ncl > scl) return 0;	/* No free cluster found? */
 80017de:	2d01      	cmp	r5, #1
 80017e0:	d930      	bls.n	8001844 <create_chain+0x11c>
					ncl = 2;
 80017e2:	2402      	movs	r4, #2
 80017e4:	e7ea      	b.n	80017bc <create_chain+0x94>
 80017e6:	46a1      	mov	r9, r4
		res = put_fat(fs, ncl, 0xFFFFFFFF);		/* Mark the new cluster 'EOC' */
 80017e8:	f04f 32ff 	mov.w	r2, #4294967295	@ 0xffffffff
 80017ec:	4649      	mov	r1, r9
 80017ee:	4638      	mov	r0, r7
 80017f0:	f7ff fe5a 	bl	80014a8 <put_fat>
		if (res == FR_OK && clst != 0) {
 80017f4:	4603      	mov	r3, r0
 80017f6:	b9d0      	cbnz	r0, 800182e <create_chain+0x106>
 80017f8:	f1b8 0f00 	cmp.w	r8, #0
 80017fc:	d110      	bne.n	8001820 <create_chain+0xf8>
	if (res == FR_OK) {			/* Update allocation information if the function succeeded */
 80017fe:	b9b3      	cbnz	r3, 800182e <create_chain+0x106>
		fs->last_clst = ncl;
 8001800:	f8c7 900c 	str.w	r9, [r7, #12]
		if (fs->free_clst > 0 && fs->free_clst <= fs->n_fatent - 2) {
 8001804:	693b      	ldr	r3, [r7, #16]
 8001806:	b30b      	cbz	r3, 800184c <create_chain+0x124>
 8001808:	697a      	ldr	r2, [r7, #20]
 800180a:	3a02      	subs	r2, #2
 800180c:	4293      	cmp	r3, r2
 800180e:	d81f      	bhi.n	8001850 <create_chain+0x128>
			fs->free_clst--;
 8001810:	3b01      	subs	r3, #1
 8001812:	613b      	str	r3, [r7, #16]
			fs->fsi_flag |= 1;
 8001814:	797b      	ldrb	r3, [r7, #5]
 8001816:	f043 0301 	orr.w	r3, r3, #1
 800181a:	717b      	strb	r3, [r7, #5]
 800181c:	464b      	mov	r3, r9
 800181e:	e009      	b.n	8001834 <create_chain+0x10c>
			res = put_fat(fs, clst, ncl);		/* Link it from the previous one if needed */
 8001820:	464a      	mov	r2, r9
 8001822:	4641      	mov	r1, r8
 8001824:	4638      	mov	r0, r7
 8001826:	f7ff fe3f 	bl	80014a8 <put_fat>
 800182a:	4603      	mov	r3, r0
 800182c:	e7e7      	b.n	80017fe <create_chain+0xd6>
		ncl = (res == FR_DISK_ERR) ? 0xFFFFFFFF : 1;	/* Failed. Generate error status */
 800182e:	2b01      	cmp	r3, #1
 8001830:	d003      	beq.n	800183a <create_chain+0x112>
 8001832:	2301      	movs	r3, #1
}
 8001834:	4618      	mov	r0, r3
 8001836:	e8bd 83f8 	ldmia.w	sp!, {r3, r4, r5, r6, r7, r8, r9, pc}
		ncl = (res == FR_DISK_ERR) ? 0xFFFFFFFF : 1;	/* Failed. Generate error status */
 800183a:	f04f 33ff 	mov.w	r3, #4294967295	@ 0xffffffff
 800183e:	e7f9      	b.n	8001834 <create_chain+0x10c>
		if (cs < 2) return 1;				/* Test for insanity */
 8001840:	2301      	movs	r3, #1
 8001842:	e7f7      	b.n	8001834 <create_chain+0x10c>
					if (ncl > scl) return 0;	/* No free cluster found? */
 8001844:	464b      	mov	r3, r9
 8001846:	e7f5      	b.n	8001834 <create_chain+0x10c>
				if (ncl == scl) return 0;		/* No free cluster found? */
 8001848:	464b      	mov	r3, r9
 800184a:	e7f3      	b.n	8001834 <create_chain+0x10c>
 800184c:	464b      	mov	r3, r9
 800184e:	e7f1      	b.n	8001834 <create_chain+0x10c>
 8001850:	464b      	mov	r3, r9
 8001852:	e7ef      	b.n	8001834 <create_chain+0x10c>

08001854 <remove_chain>:
{
 8001854:	b5f8      	push	{r3, r4, r5, r6, r7, lr}
 8001856:	460c      	mov	r4, r1
	FATFS *fs = obj->fs;
 8001858:	6805      	ldr	r5, [r0, #0]
	if (clst < 2 || clst >= fs->n_fatent) return FR_INT_ERR;	/* Check if in valid range */
 800185a:	2901      	cmp	r1, #1
 800185c:	d92e      	bls.n	80018bc <remove_chain+0x68>
 800185e:	4606      	mov	r6, r0
 8001860:	4611      	mov	r1, r2
 8001862:	696b      	ldr	r3, [r5, #20]
 8001864:	42a3      	cmp	r3, r4
 8001866:	d92b      	bls.n	80018c0 <remove_chain+0x6c>
	if (pclst != 0 && (!FF_FS_EXFAT || fs->fs_type != FS_EXFAT || obj->stat != 2)) {
 8001868:	b14a      	cbz	r2, 800187e <remove_chain+0x2a>
		res = put_fat(fs, pclst, 0xFFFFFFFF);
 800186a:	f04f 32ff 	mov.w	r2, #4294967295	@ 0xffffffff
 800186e:	4628      	mov	r0, r5
 8001870:	f7ff fe1a 	bl	80014a8 <put_fat>
		if (res != FR_OK) return res;
 8001874:	4607      	mov	r7, r0
 8001876:	b110      	cbz	r0, 800187e <remove_chain+0x2a>
 8001878:	e023      	b.n	80018c2 <remove_chain+0x6e>
	} while (clst < fs->n_fatent);	/* Repeat until the last link */
 800187a:	42a2      	cmp	r2, r4
 800187c:	d921      	bls.n	80018c2 <remove_chain+0x6e>
		nxt = get_fat(obj, clst);			/* Get cluster status */
 800187e:	4627      	mov	r7, r4
 8001880:	4621      	mov	r1, r4
 8001882:	4630      	mov	r0, r6
 8001884:	f7ff fe92 	bl	80015ac <get_fat>
		if (nxt == 0) break;				/* Empty cluster? */
 8001888:	4604      	mov	r4, r0
 800188a:	b1e0      	cbz	r0, 80018c6 <remove_chain+0x72>
		if (nxt == 1) return FR_INT_ERR;	/* Internal error? */
 800188c:	2801      	cmp	r0, #1
 800188e:	d01c      	beq.n	80018ca <remove_chain+0x76>
		if (nxt == 0xFFFFFFFF) return FR_DISK_ERR;	/* Disk error? */
 8001890:	f1b0 3fff 	cmp.w	r0, #4294967295	@ 0xffffffff
 8001894:	d01b      	beq.n	80018ce <remove_chain+0x7a>
			res = put_fat(fs, clst, 0);		/* Mark the cluster 'free' on the FAT */
 8001896:	2200      	movs	r2, #0
 8001898:	4639      	mov	r1, r7
 800189a:	4628      	mov	r0, r5
 800189c:	f7ff fe04 	bl	80014a8 <put_fat>
			if (res != FR_OK) return res;
 80018a0:	4607      	mov	r7, r0
 80018a2:	b970      	cbnz	r0, 80018c2 <remove_chain+0x6e>
		if (fs->free_clst < fs->n_fatent - 2) {	/* Update allocation information if it is valid */
 80018a4:	692b      	ldr	r3, [r5, #16]
 80018a6:	696a      	ldr	r2, [r5, #20]
 80018a8:	1e91      	subs	r1, r2, #2
 80018aa:	428b      	cmp	r3, r1
 80018ac:	d2e5      	bcs.n	800187a <remove_chain+0x26>
			fs->free_clst++;
 80018ae:	3301      	adds	r3, #1
 80018b0:	612b      	str	r3, [r5, #16]
			fs->fsi_flag |= 1;
 80018b2:	796b      	ldrb	r3, [r5, #5]
 80018b4:	f043 0301 	orr.w	r3, r3, #1
 80018b8:	716b      	strb	r3, [r5, #5]
 80018ba:	e7de      	b.n	800187a <remove_chain+0x26>
	if (clst < 2 || clst >= fs->n_fatent) return FR_INT_ERR;	/* Check if in valid range */
 80018bc:	2702      	movs	r7, #2
 80018be:	e000      	b.n	80018c2 <remove_chain+0x6e>
 80018c0:	2702      	movs	r7, #2
}
 80018c2:	4638      	mov	r0, r7
 80018c4:	bdf8      	pop	{r3, r4, r5, r6, r7, pc}
	return FR_OK;
 80018c6:	2700      	movs	r7, #0
 80018c8:	e7fb      	b.n	80018c2 <remove_chain+0x6e>
		if (nxt == 1) return FR_INT_ERR;	/* Internal error? */
 80018ca:	2702      	movs	r7, #2
 80018cc:	e7f9      	b.n	80018c2 <remove_chain+0x6e>
		if (nxt == 0xFFFFFFFF) return FR_DISK_ERR;	/* Disk error? */
 80018ce:	2701      	movs	r7, #1
 80018d0:	e7f7      	b.n	80018c2 <remove_chain+0x6e>

080018d2 <dir_clear>:
{
 80018d2:	b5f8      	push	{r3, r4, r5, r6, r7, lr}
 80018d4:	4605      	mov	r5, r0
 80018d6:	460c      	mov	r4, r1
	if (sync_window(fs) != FR_OK) return FR_DISK_ERR;	/* Flush disk access window */
 80018d8:	f7ff fbac 	bl	8001034 <sync_window>
 80018dc:	b108      	cbz	r0, 80018e2 <dir_clear+0x10>
 80018de:	2001      	movs	r0, #1
}
 80018e0:	bdf8      	pop	{r3, r4, r5, r6, r7, pc}
	sect = clst2sect(fs, clst);		/* Top of the cluster */
 80018e2:	4621      	mov	r1, r4
 80018e4:	4628      	mov	r0, r5
 80018e6:	f7ff fb27 	bl	8000f38 <clst2sect>
 80018ea:	4606      	mov	r6, r0
	fs->winsect = sect;				/* Set window to top of the cluster */
 80018ec:	61e8      	str	r0, [r5, #28]
	memset(fs->win, 0, sizeof fs->win);	/* Clear window buffer */
 80018ee:	f105 0730 	add.w	r7, r5, #48	@ 0x30
 80018f2:	f44f 7200 	mov.w	r2, #512	@ 0x200
 80018f6:	2100      	movs	r1, #0
 80018f8:	4638      	mov	r0, r7
 80018fa:	f000 fcc3 	bl	8002284 <memset>
		for (n = 0; n < fs->csize && disk_write(fs->pdrv, ibuf, sect + n, szb) == RES_OK; n += szb) ;	/* Fill the cluster with 0 */
 80018fe:	2400      	movs	r4, #0
 8001900:	e000      	b.n	8001904 <dir_clear+0x32>
 8001902:	3401      	adds	r4, #1
 8001904:	896b      	ldrh	r3, [r5, #10]
 8001906:	42a3      	cmp	r3, r4
 8001908:	d907      	bls.n	800191a <dir_clear+0x48>
 800190a:	2301      	movs	r3, #1
 800190c:	19a2      	adds	r2, r4, r6
 800190e:	4639      	mov	r1, r7
 8001910:	7868      	ldrb	r0, [r5, #1]
 8001912:	f7ff f9dd 	bl	8000cd0 <disk_write>
 8001916:	2800      	cmp	r0, #0
 8001918:	d0f3      	beq.n	8001902 <dir_clear+0x30>
	return (n == fs->csize) ? FR_OK : FR_DISK_ERR;
 800191a:	8968      	ldrh	r0, [r5, #10]
 800191c:	1b00      	subs	r0, r0, r4
 800191e:	bf18      	it	ne
 8001920:	2001      	movne	r0, #1
 8001922:	e7dd      	b.n	80018e0 <dir_clear+0xe>

08001924 <dir_next>:
{
 8001924:	e92d 43f8 	stmdb	sp!, {r3, r4, r5, r6, r7, r8, r9, lr}
 8001928:	4604      	mov	r4, r0
 800192a:	4688      	mov	r8, r1
	FATFS *fs = dp->obj.fs;
 800192c:	6807      	ldr	r7, [r0, #0]
	ofs = dp->dptr + SZDIRE;	/* Next entry */
 800192e:	6905      	ldr	r5, [r0, #16]
 8001930:	3520      	adds	r5, #32
	if (ofs >= (DWORD)((FF_FS_EXFAT && fs->fs_type == FS_EXFAT) ? MAX_DIR_EX : MAX_DIR)) dp->sect = 0;	/* Disable it if the offset reached the max value */
 8001932:	f5b5 1f00 	cmp.w	r5, #2097152	@ 0x200000
 8001936:	d301      	bcc.n	800193c <dir_next+0x18>
 8001938:	2300      	movs	r3, #0
 800193a:	6183      	str	r3, [r0, #24]
	if (dp->sect == 0) return FR_NO_FILE;	/* Report EOT if it has been disabled */
 800193c:	69a3      	ldr	r3, [r4, #24]
 800193e:	2b00      	cmp	r3, #0
 8001940:	d046      	beq.n	80019d0 <dir_next+0xac>
	if (ofs % SS(fs) == 0) {	/* Sector changed? */
 8001942:	f3c5 0608 	ubfx	r6, r5, #0, #9
 8001946:	b93e      	cbnz	r6, 8001958 <dir_next+0x34>
		dp->sect++;				/* Next sector */
 8001948:	3301      	adds	r3, #1
 800194a:	61a3      	str	r3, [r4, #24]
		if (dp->clust == 0) {	/* Static table */
 800194c:	6961      	ldr	r1, [r4, #20]
 800194e:	b979      	cbnz	r1, 8001970 <dir_next+0x4c>
			if (ofs / SZDIRE >= fs->n_rootdir) {	/* Report EOT if it reached end of static table */
 8001950:	893b      	ldrh	r3, [r7, #8]
 8001952:	ebb3 1f55 	cmp.w	r3, r5, lsr #5
 8001956:	d907      	bls.n	8001968 <dir_next+0x44>
	dp->dptr = ofs;						/* Current entry */
 8001958:	6125      	str	r5, [r4, #16]
	dp->dir = fs->win + ofs % SS(fs);	/* Pointer to the entry in the win[] */
 800195a:	f107 0330 	add.w	r3, r7, #48	@ 0x30
 800195e:	4433      	add	r3, r6
 8001960:	61e3      	str	r3, [r4, #28]
	return FR_OK;
 8001962:	2000      	movs	r0, #0
}
 8001964:	e8bd 83f8 	ldmia.w	sp!, {r3, r4, r5, r6, r7, r8, r9, pc}
				dp->sect = 0; return FR_NO_FILE;
 8001968:	2300      	movs	r3, #0
 800196a:	61a3      	str	r3, [r4, #24]
 800196c:	2004      	movs	r0, #4
 800196e:	e7f9      	b.n	8001964 <dir_next+0x40>
			if ((ofs / SS(fs) & (fs->csize - 1)) == 0) {	/* Cluster changed? */
 8001970:	897b      	ldrh	r3, [r7, #10]
 8001972:	3b01      	subs	r3, #1
 8001974:	ea13 2355 	ands.w	r3, r3, r5, lsr #9
 8001978:	d1ee      	bne.n	8001958 <dir_next+0x34>
				clst = get_fat(&dp->obj, dp->clust);		/* Get next cluster */
 800197a:	4620      	mov	r0, r4
 800197c:	f7ff fe16 	bl	80015ac <get_fat>
 8001980:	4681      	mov	r9, r0
				if (clst <= 1) return FR_INT_ERR;			/* Internal error */
 8001982:	2801      	cmp	r0, #1
 8001984:	d926      	bls.n	80019d4 <dir_next+0xb0>
				if (clst == 0xFFFFFFFF) return FR_DISK_ERR;	/* Disk error */
 8001986:	f1b0 3fff 	cmp.w	r0, #4294967295	@ 0xffffffff
 800198a:	d025      	beq.n	80019d8 <dir_next+0xb4>
				if (clst >= fs->n_fatent) {					/* It reached end of dynamic table */
 800198c:	697b      	ldr	r3, [r7, #20]
 800198e:	4283      	cmp	r3, r0
 8001990:	d812      	bhi.n	80019b8 <dir_next+0x94>
					if (!stretch) {								/* If no stretch, report EOT */
 8001992:	f1b8 0f00 	cmp.w	r8, #0
 8001996:	d017      	beq.n	80019c8 <dir_next+0xa4>
					clst = create_chain(&dp->obj, dp->clust);	/* Allocate a cluster */
 8001998:	6961      	ldr	r1, [r4, #20]
 800199a:	4620      	mov	r0, r4
 800199c:	f7ff fec4 	bl	8001728 <create_chain>
					if (clst == 0) return FR_DENIED;			/* No free cluster */
 80019a0:	4681      	mov	r9, r0
 80019a2:	b1d8      	cbz	r0, 80019dc <dir_next+0xb8>
					if (clst == 1) return FR_INT_ERR;			/* Internal error */
 80019a4:	2801      	cmp	r0, #1
 80019a6:	d01b      	beq.n	80019e0 <dir_next+0xbc>
					if (clst == 0xFFFFFFFF) return FR_DISK_ERR;	/* Disk error */
 80019a8:	f1b0 3fff 	cmp.w	r0, #4294967295	@ 0xffffffff
 80019ac:	d01a      	beq.n	80019e4 <dir_next+0xc0>
					if (dir_clear(fs, clst) != FR_OK) return FR_DISK_ERR;	/* Clean up the stretched table */
 80019ae:	4601      	mov	r1, r0
 80019b0:	4638      	mov	r0, r7
 80019b2:	f7ff ff8e 	bl	80018d2 <dir_clear>
 80019b6:	b9b8      	cbnz	r0, 80019e8 <dir_next+0xc4>
				dp->clust = clst;		/* Initialize data for new cluster */
 80019b8:	f8c4 9014 	str.w	r9, [r4, #20]
				dp->sect = clst2sect(fs, clst);
 80019bc:	4649      	mov	r1, r9
 80019be:	4638      	mov	r0, r7
 80019c0:	f7ff faba 	bl	8000f38 <clst2sect>
 80019c4:	61a0      	str	r0, [r4, #24]
 80019c6:	e7c7      	b.n	8001958 <dir_next+0x34>
						dp->sect = 0; return FR_NO_FILE;
 80019c8:	2300      	movs	r3, #0
 80019ca:	61a3      	str	r3, [r4, #24]
 80019cc:	2004      	movs	r0, #4
 80019ce:	e7c9      	b.n	8001964 <dir_next+0x40>
	if (dp->sect == 0) return FR_NO_FILE;	/* Report EOT if it has been disabled */
 80019d0:	2004      	movs	r0, #4
 80019d2:	e7c7      	b.n	8001964 <dir_next+0x40>
				if (clst <= 1) return FR_INT_ERR;			/* Internal error */
 80019d4:	2002      	movs	r0, #2
 80019d6:	e7c5      	b.n	8001964 <dir_next+0x40>
				if (clst == 0xFFFFFFFF) return FR_DISK_ERR;	/* Disk error */
 80019d8:	2001      	movs	r0, #1
 80019da:	e7c3      	b.n	8001964 <dir_next+0x40>
					if (clst == 0) return FR_DENIED;			/* No free cluster */
 80019dc:	2007      	movs	r0, #7
 80019de:	e7c1      	b.n	8001964 <dir_next+0x40>
					if (clst == 1) return FR_INT_ERR;			/* Internal error */
 80019e0:	2002      	movs	r0, #2
 80019e2:	e7bf      	b.n	8001964 <dir_next+0x40>
					if (clst == 0xFFFFFFFF) return FR_DISK_ERR;	/* Disk error */
 80019e4:	2001      	movs	r0, #1
 80019e6:	e7bd      	b.n	8001964 <dir_next+0x40>
					if (dir_clear(fs, clst) != FR_OK) return FR_DISK_ERR;	/* Clean up the stretched table */
 80019e8:	2001      	movs	r0, #1
 80019ea:	e7bb      	b.n	8001964 <dir_next+0x40>

080019ec <dir_find>:
{
 80019ec:	b570      	push	{r4, r5, r6, lr}
 80019ee:	4604      	mov	r4, r0
	FATFS *fs = dp->obj.fs;
 80019f0:	6806      	ldr	r6, [r0, #0]
	res = dir_sdi(dp, 0);			/* Rewind directory object */
 80019f2:	2100      	movs	r1, #0
 80019f4:	f7ff fe42 	bl	800167c <dir_sdi>
	if (res != FR_OK) return res;
 80019f8:	4605      	mov	r5, r0
 80019fa:	b140      	cbz	r0, 8001a0e <dir_find+0x22>
}
 80019fc:	4628      	mov	r0, r5
 80019fe:	bd70      	pop	{r4, r5, r6, pc}
		res = dir_next(dp, 0);	/* Next entry */
 8001a00:	2100      	movs	r1, #0
 8001a02:	4620      	mov	r0, r4
 8001a04:	f7ff ff8e 	bl	8001924 <dir_next>
	} while (res == FR_OK);
 8001a08:	4605      	mov	r5, r0
 8001a0a:	2800      	cmp	r0, #0
 8001a0c:	d1f6      	bne.n	80019fc <dir_find+0x10>
		res = move_window(fs, dp->sect);
 8001a0e:	69a1      	ldr	r1, [r4, #24]
 8001a10:	4630      	mov	r0, r6
 8001a12:	f7ff fb33 	bl	800107c <move_window>
		if (res != FR_OK) break;
 8001a16:	4605      	mov	r5, r0
 8001a18:	2800      	cmp	r0, #0
 8001a1a:	d1ef      	bne.n	80019fc <dir_find+0x10>
		et = dp->dir[DIR_Name];		/* Entry type */
 8001a1c:	69e0      	ldr	r0, [r4, #28]
 8001a1e:	7803      	ldrb	r3, [r0, #0]
		if (et == 0) { res = FR_NO_FILE; break; }	/* Reached end of directory table */
 8001a20:	b17b      	cbz	r3, 8001a42 <dir_find+0x56>
		dp->obj.attr = dp->dir[DIR_Attr] & AM_MASK;
 8001a22:	7ac3      	ldrb	r3, [r0, #11]
 8001a24:	f003 033f 	and.w	r3, r3, #63	@ 0x3f
 8001a28:	71a3      	strb	r3, [r4, #6]
		if (!(dp->dir[DIR_Attr] & AM_VOL) && !memcmp(dp->dir, dp->fn, 11)) break;	/* Is it a valid entry? */
 8001a2a:	7ac3      	ldrb	r3, [r0, #11]
 8001a2c:	f013 0f08 	tst.w	r3, #8
 8001a30:	d1e6      	bne.n	8001a00 <dir_find+0x14>
 8001a32:	220b      	movs	r2, #11
 8001a34:	f104 0120 	add.w	r1, r4, #32
 8001a38:	f000 fcdc 	bl	80023f4 <memcmp>
 8001a3c:	2800      	cmp	r0, #0
 8001a3e:	d1df      	bne.n	8001a00 <dir_find+0x14>
 8001a40:	e7dc      	b.n	80019fc <dir_find+0x10>
		if (et == 0) { res = FR_NO_FILE; break; }	/* Reached end of directory table */
 8001a42:	2504      	movs	r5, #4
 8001a44:	e7da      	b.n	80019fc <dir_find+0x10>

08001a46 <dir_alloc>:
{
 8001a46:	b5f8      	push	{r3, r4, r5, r6, r7, lr}
 8001a48:	4604      	mov	r4, r0
 8001a4a:	460e      	mov	r6, r1
	FATFS *fs = dp->obj.fs;
 8001a4c:	6807      	ldr	r7, [r0, #0]
	res = dir_sdi(dp, 0);
 8001a4e:	2100      	movs	r1, #0
 8001a50:	f7ff fe14 	bl	800167c <dir_sdi>
	if (res == FR_OK) {
 8001a54:	4602      	mov	r2, r0
 8001a56:	b9c0      	cbnz	r0, 8001a8a <dir_alloc+0x44>
		n = 0;
 8001a58:	2500      	movs	r5, #0
 8001a5a:	e008      	b.n	8001a6e <dir_alloc+0x28>
				if (++n == n_ent) break;	/* Is a block of contiguous free entries found? */
 8001a5c:	3501      	adds	r5, #1
 8001a5e:	42b5      	cmp	r5, r6
 8001a60:	d013      	beq.n	8001a8a <dir_alloc+0x44>
			res = dir_next(dp, 1);	/* Next entry with table stretch enabled */
 8001a62:	2101      	movs	r1, #1
 8001a64:	4620      	mov	r0, r4
 8001a66:	f7ff ff5d 	bl	8001924 <dir_next>
		} while (res == FR_OK);
 8001a6a:	4602      	mov	r2, r0
 8001a6c:	b968      	cbnz	r0, 8001a8a <dir_alloc+0x44>
			res = move_window(fs, dp->sect);
 8001a6e:	69a1      	ldr	r1, [r4, #24]
 8001a70:	4638      	mov	r0, r7
 8001a72:	f7ff fb03 	bl	800107c <move_window>
			if (res != FR_OK) break;
 8001a76:	4602      	mov	r2, r0
 8001a78:	b938      	cbnz	r0, 8001a8a <dir_alloc+0x44>
			if (dp->dir[DIR_Name] == DDEM || dp->dir[DIR_Name] == 0) {	/* Is the entry free? */
 8001a7a:	69e3      	ldr	r3, [r4, #28]
 8001a7c:	781b      	ldrb	r3, [r3, #0]
 8001a7e:	2be5      	cmp	r3, #229	@ 0xe5
 8001a80:	d0ec      	beq.n	8001a5c <dir_alloc+0x16>
 8001a82:	2b00      	cmp	r3, #0
 8001a84:	d0ea      	beq.n	8001a5c <dir_alloc+0x16>
				n = 0;				/* Not a free entry, restart to search */
 8001a86:	2500      	movs	r5, #0
 8001a88:	e7eb      	b.n	8001a62 <dir_alloc+0x1c>
	if (res == FR_NO_FILE) res = FR_DENIED;	/* No directory entry to allocate */
 8001a8a:	2a04      	cmp	r2, #4
 8001a8c:	d001      	beq.n	8001a92 <dir_alloc+0x4c>
}
 8001a8e:	4610      	mov	r0, r2
 8001a90:	bdf8      	pop	{r3, r4, r5, r6, r7, pc}
	if (res == FR_NO_FILE) res = FR_DENIED;	/* No directory entry to allocate */
 8001a92:	2207      	movs	r2, #7
 8001a94:	e7fb      	b.n	8001a8e <dir_alloc+0x48>
	...

08001a98 <create_name>:
{
 8001a98:	e92d 4ff0 	stmdb	sp!, {r4, r5, r6, r7, r8, r9, sl, fp, lr}
 8001a9c:	b083      	sub	sp, #12
 8001a9e:	4680      	mov	r8, r0
 8001aa0:	9101      	str	r1, [sp, #4]
	p = *path; sfn = dp->fn;
 8001aa2:	f8d1 9000 	ldr.w	r9, [r1]
 8001aa6:	f100 0b20 	add.w	fp, r0, #32
	memset(sfn, ' ', 11);
 8001aaa:	f04f 3320 	mov.w	r3, #538976288	@ 0x20202020
 8001aae:	6203      	str	r3, [r0, #32]
 8001ab0:	6243      	str	r3, [r0, #36]	@ 0x24
 8001ab2:	f8c0 3027 	str.w	r3, [r0, #39]	@ 0x27
	si = i = 0; ni = 8;
 8001ab6:	2700      	movs	r7, #0
 8001ab8:	463e      	mov	r6, r7
 8001aba:	f04f 0a08 	mov.w	sl, #8
 8001abe:	e01a      	b.n	8001af6 <create_name+0x5e>
			while (IsSeparator(p[si])) si++;	/* Skip duplicated separators */
 8001ac0:	3501      	adds	r5, #1
 8001ac2:	f819 3005 	ldrb.w	r3, [r9, r5]
 8001ac6:	2b2f      	cmp	r3, #47	@ 0x2f
 8001ac8:	d0fa      	beq.n	8001ac0 <create_name+0x28>
 8001aca:	2b5c      	cmp	r3, #92	@ 0x5c
 8001acc:	d0f8      	beq.n	8001ac0 <create_name+0x28>
	*path = &p[si];						/* Return pointer to the next segment */
 8001ace:	444d      	add	r5, r9
 8001ad0:	9b01      	ldr	r3, [sp, #4]
 8001ad2:	601d      	str	r5, [r3, #0]
	if (i == 0) return FR_INVALID_NAME;	/* Reject nul string */
 8001ad4:	2f00      	cmp	r7, #0
 8001ad6:	d066      	beq.n	8001ba6 <create_name+0x10e>
	if (sfn[0] == DDEM) sfn[0] = RDDEM;	/* If the first character collides with DDEM, replace it with RDDEM */
 8001ad8:	f898 2020 	ldrb.w	r2, [r8, #32]
 8001adc:	2ae5      	cmp	r2, #229	@ 0xe5
 8001ade:	d04f      	beq.n	8001b80 <create_name+0xe8>
	sfn[NSFLAG] = (c <= ' ' || p[si] <= ' ') ? NS_LAST : 0;	/* Set last segment flag if end of the path */
 8001ae0:	2c20      	cmp	r4, #32
 8001ae2:	d951      	bls.n	8001b88 <create_name+0xf0>
 8001ae4:	782b      	ldrb	r3, [r5, #0]
 8001ae6:	2b20      	cmp	r3, #32
 8001ae8:	d853      	bhi.n	8001b92 <create_name+0xfa>
 8001aea:	2304      	movs	r3, #4
 8001aec:	e04d      	b.n	8001b8a <create_name+0xf2>
			i = 8; ni = 11;				/* Enter file extension field */
 8001aee:	2708      	movs	r7, #8
 8001af0:	f04f 0a0b 	mov.w	sl, #11
 8001af4:	462e      	mov	r6, r5
		c = (BYTE)p[si++];				/* Get a byte */
 8001af6:	1c75      	adds	r5, r6, #1
 8001af8:	f819 4006 	ldrb.w	r4, [r9, r6]
		if (c <= ' ') break; 			/* Break if end of the path name */
 8001afc:	2c20      	cmp	r4, #32
 8001afe:	d9e6      	bls.n	8001ace <create_name+0x36>
		if (IsSeparator(c)) {			/* Break if a separator is found */
 8001b00:	2c2f      	cmp	r4, #47	@ 0x2f
 8001b02:	d0de      	beq.n	8001ac2 <create_name+0x2a>
 8001b04:	2c5c      	cmp	r4, #92	@ 0x5c
 8001b06:	d0dc      	beq.n	8001ac2 <create_name+0x2a>
		if (c == '.' || i >= ni) {		/* End of body or field overflow? */
 8001b08:	2c2e      	cmp	r4, #46	@ 0x2e
 8001b0a:	d001      	beq.n	8001b10 <create_name+0x78>
 8001b0c:	45ba      	cmp	sl, r7
 8001b0e:	d808      	bhi.n	8001b22 <create_name+0x8a>
			if (ni == 11 || c != '.') return FR_INVALID_NAME;	/* Field overflow or invalid dot? */
 8001b10:	f1ba 0f0b 	cmp.w	sl, #11
 8001b14:	d03f      	beq.n	8001b96 <create_name+0xfe>
 8001b16:	2c2e      	cmp	r4, #46	@ 0x2e
 8001b18:	d0e9      	beq.n	8001aee <create_name+0x56>
 8001b1a:	2006      	movs	r0, #6
}
 8001b1c:	b003      	add	sp, #12
 8001b1e:	e8bd 8ff0 	ldmia.w	sp!, {r4, r5, r6, r7, r8, r9, sl, fp, pc}
		if (c >= 0x80) {				/* Is SBC extended character? */
 8001b22:	f014 0f80 	tst.w	r4, #128	@ 0x80
 8001b26:	d116      	bne.n	8001b56 <create_name+0xbe>
		if (dbc_1st(c)) {				/* Check if it is a DBC 1st byte */
 8001b28:	4620      	mov	r0, r4
 8001b2a:	f7ff fa01 	bl	8000f30 <dbc_1st>
 8001b2e:	b1b8      	cbz	r0, 8001b60 <create_name+0xc8>
			d = (BYTE)p[si++];			/* Get 2nd byte */
 8001b30:	3602      	adds	r6, #2
 8001b32:	f819 5005 	ldrb.w	r5, [r9, r5]
			if (!dbc_2nd(d) || i >= ni - 1) return FR_INVALID_NAME;	/* Reject invalid DBC */
 8001b36:	4628      	mov	r0, r5
 8001b38:	f7ff f9fc 	bl	8000f34 <dbc_2nd>
 8001b3c:	b368      	cbz	r0, 8001b9a <create_name+0x102>
 8001b3e:	f10a 33ff 	add.w	r3, sl, #4294967295	@ 0xffffffff
 8001b42:	42bb      	cmp	r3, r7
 8001b44:	d92b      	bls.n	8001b9e <create_name+0x106>
			sfn[i++] = c;
 8001b46:	1c7b      	adds	r3, r7, #1
 8001b48:	f80b 4007 	strb.w	r4, [fp, r7]
			sfn[i++] = d;
 8001b4c:	f80b 5003 	strb.w	r5, [fp, r3]
 8001b50:	3702      	adds	r7, #2
			d = (BYTE)p[si++];			/* Get 2nd byte */
 8001b52:	4635      	mov	r5, r6
 8001b54:	e7ce      	b.n	8001af4 <create_name+0x5c>
			c = ExCvt[c & 0x7F];		/* To upper SBC extended character */
 8001b56:	f004 047f 	and.w	r4, r4, #127	@ 0x7f
 8001b5a:	4b14      	ldr	r3, [pc, #80]	@ (8001bac <create_name+0x114>)
 8001b5c:	5d1c      	ldrb	r4, [r3, r4]
 8001b5e:	e7e3      	b.n	8001b28 <create_name+0x90>
			if (strchr("*+,:;<=>[]|\"\?\x7F", (int)c)) return FR_INVALID_NAME;	/* Reject illegal chrs for SFN */
 8001b60:	4621      	mov	r1, r4
 8001b62:	4813      	ldr	r0, [pc, #76]	@ (8001bb0 <create_name+0x118>)
 8001b64:	f000 fbde 	bl	8002324 <strchr>
 8001b68:	b9d8      	cbnz	r0, 8001ba2 <create_name+0x10a>
			if (IsLower(c)) c -= 0x20;	/* To upper */
 8001b6a:	f1a4 0361 	sub.w	r3, r4, #97	@ 0x61
 8001b6e:	b2db      	uxtb	r3, r3
 8001b70:	2b19      	cmp	r3, #25
 8001b72:	d801      	bhi.n	8001b78 <create_name+0xe0>
 8001b74:	3c20      	subs	r4, #32
 8001b76:	b2e4      	uxtb	r4, r4
			sfn[i++] = c;
 8001b78:	f80b 4007 	strb.w	r4, [fp, r7]
 8001b7c:	3701      	adds	r7, #1
 8001b7e:	e7b9      	b.n	8001af4 <create_name+0x5c>
	if (sfn[0] == DDEM) sfn[0] = RDDEM;	/* If the first character collides with DDEM, replace it with RDDEM */
 8001b80:	2205      	movs	r2, #5
 8001b82:	f888 2020 	strb.w	r2, [r8, #32]
 8001b86:	e7ab      	b.n	8001ae0 <create_name+0x48>
	sfn[NSFLAG] = (c <= ' ' || p[si] <= ' ') ? NS_LAST : 0;	/* Set last segment flag if end of the path */
 8001b88:	2304      	movs	r3, #4
 8001b8a:	f888 302b 	strb.w	r3, [r8, #43]	@ 0x2b
	return FR_OK;
 8001b8e:	2000      	movs	r0, #0
 8001b90:	e7c4      	b.n	8001b1c <create_name+0x84>
	sfn[NSFLAG] = (c <= ' ' || p[si] <= ' ') ? NS_LAST : 0;	/* Set last segment flag if end of the path */
 8001b92:	2300      	movs	r3, #0
 8001b94:	e7f9      	b.n	8001b8a <create_name+0xf2>
			if (ni == 11 || c != '.') return FR_INVALID_NAME;	/* Field overflow or invalid dot? */
 8001b96:	2006      	movs	r0, #6
 8001b98:	e7c0      	b.n	8001b1c <create_name+0x84>
			if (!dbc_2nd(d) || i >= ni - 1) return FR_INVALID_NAME;	/* Reject invalid DBC */
 8001b9a:	2006      	movs	r0, #6
 8001b9c:	e7be      	b.n	8001b1c <create_name+0x84>
 8001b9e:	2006      	movs	r0, #6
 8001ba0:	e7bc      	b.n	8001b1c <create_name+0x84>
			if (strchr("*+,:;<=>[]|\"\?\x7F", (int)c)) return FR_INVALID_NAME;	/* Reject illegal chrs for SFN */
 8001ba2:	2006      	movs	r0, #6
 8001ba4:	e7ba      	b.n	8001b1c <create_name+0x84>
	if (i == 0) return FR_INVALID_NAME;	/* Reject nul string */
 8001ba6:	2006      	movs	r0, #6
 8001ba8:	e7b8      	b.n	8001b1c <create_name+0x84>
 8001baa:	bf00      	nop
 8001bac:	080028d4 	.word	0x080028d4
 8001bb0:	080028b0 	.word	0x080028b0

08001bb4 <follow_path>:
{
 8001bb4:	b570      	push	{r4, r5, r6, lr}
 8001bb6:	b082      	sub	sp, #8
 8001bb8:	4604      	mov	r4, r0
 8001bba:	9101      	str	r1, [sp, #4]
	FATFS *fs = dp->obj.fs;
 8001bbc:	6805      	ldr	r5, [r0, #0]
		while (IsSeparator(*path)) path++;	/* Strip heading separators */
 8001bbe:	e001      	b.n	8001bc4 <follow_path+0x10>
 8001bc0:	3301      	adds	r3, #1
 8001bc2:	9301      	str	r3, [sp, #4]
 8001bc4:	9b01      	ldr	r3, [sp, #4]
 8001bc6:	781a      	ldrb	r2, [r3, #0]
 8001bc8:	2a2f      	cmp	r2, #47	@ 0x2f
 8001bca:	d0f9      	beq.n	8001bc0 <follow_path+0xc>
 8001bcc:	2a5c      	cmp	r2, #92	@ 0x5c
 8001bce:	d0f7      	beq.n	8001bc0 <follow_path+0xc>
		dp->obj.sclust = 0;					/* Start at the root directory */
 8001bd0:	2200      	movs	r2, #0
 8001bd2:	60a2      	str	r2, [r4, #8]
	if ((UINT)*path < ' ') {				/* Null path name is the origin directory itself */
 8001bd4:	781b      	ldrb	r3, [r3, #0]
 8001bd6:	2b1f      	cmp	r3, #31
 8001bd8:	d91e      	bls.n	8001c18 <follow_path+0x64>
			res = create_name(dp, &path);	/* Get a segment name of the path */
 8001bda:	a901      	add	r1, sp, #4
 8001bdc:	4620      	mov	r0, r4
 8001bde:	f7ff ff5b 	bl	8001a98 <create_name>
			if (res != FR_OK) break;
 8001be2:	4603      	mov	r3, r0
 8001be4:	bb00      	cbnz	r0, 8001c28 <follow_path+0x74>
			ns = dp->fn[NSFLAG];
 8001be6:	f894 602b 	ldrb.w	r6, [r4, #43]	@ 0x2b
			res = dir_find(dp);				/* Find an object with the segment name */
 8001bea:	4620      	mov	r0, r4
 8001bec:	f7ff fefe 	bl	80019ec <dir_find>
			if (res != FR_OK) {				/* Failed to find the object */
 8001bf0:	4603      	mov	r3, r0
 8001bf2:	b9e0      	cbnz	r0, 8001c2e <follow_path+0x7a>
			if (ns & NS_LAST) break;		/* If last segment matched, the function completed */
 8001bf4:	f016 0f04 	tst.w	r6, #4
 8001bf8:	d116      	bne.n	8001c28 <follow_path+0x74>
			if (!(dp->obj.attr & AM_DIR)) {
 8001bfa:	79a3      	ldrb	r3, [r4, #6]
 8001bfc:	f013 0f10 	tst.w	r3, #16
 8001c00:	d01c      	beq.n	8001c3c <follow_path+0x88>
				dp->obj.sclust = ld_clust(fs, fs->win + dp->dptr % SS(fs));	/* Open next directory */
 8001c02:	f105 0130 	add.w	r1, r5, #48	@ 0x30
 8001c06:	6923      	ldr	r3, [r4, #16]
 8001c08:	f3c3 0308 	ubfx	r3, r3, #0, #9
 8001c0c:	4419      	add	r1, r3
 8001c0e:	4628      	mov	r0, r5
 8001c10:	f7ff f99e 	bl	8000f50 <ld_clust>
 8001c14:	60a0      	str	r0, [r4, #8]
			res = create_name(dp, &path);	/* Get a segment name of the path */
 8001c16:	e7e0      	b.n	8001bda <follow_path+0x26>
		dp->fn[NSFLAG] = NS_NONAME;
 8001c18:	2380      	movs	r3, #128	@ 0x80
 8001c1a:	f884 302b 	strb.w	r3, [r4, #43]	@ 0x2b
		res = dir_sdi(dp, 0);
 8001c1e:	4611      	mov	r1, r2
 8001c20:	4620      	mov	r0, r4
 8001c22:	f7ff fd2b 	bl	800167c <dir_sdi>
 8001c26:	4603      	mov	r3, r0
}
 8001c28:	4618      	mov	r0, r3
 8001c2a:	b002      	add	sp, #8
 8001c2c:	bd70      	pop	{r4, r5, r6, pc}
				if (res == FR_NO_FILE) {	/* Object is not found */
 8001c2e:	2804      	cmp	r0, #4
 8001c30:	d1fa      	bne.n	8001c28 <follow_path+0x74>
						if (!(ns & NS_LAST)) res = FR_NO_PATH;	/* Adjust error code if not last segment */
 8001c32:	f016 0f04 	tst.w	r6, #4
 8001c36:	d1f7      	bne.n	8001c28 <follow_path+0x74>
 8001c38:	2305      	movs	r3, #5
 8001c3a:	e7f5      	b.n	8001c28 <follow_path+0x74>
				res = FR_NO_PATH; break;	/* It is not a sub-directory and cannot follow the path */
 8001c3c:	2305      	movs	r3, #5
 8001c3e:	e7f3      	b.n	8001c28 <follow_path+0x74>

08001c40 <dir_register>:
{
 8001c40:	b570      	push	{r4, r5, r6, lr}
 8001c42:	4604      	mov	r4, r0
	FATFS *fs = dp->obj.fs;
 8001c44:	6806      	ldr	r6, [r0, #0]
	res = dir_alloc(dp, 1);		/* Allocate an entry for SFN */
 8001c46:	2101      	movs	r1, #1
 8001c48:	f7ff fefd 	bl	8001a46 <dir_alloc>
	if (res == FR_OK) {
 8001c4c:	4605      	mov	r5, r0
 8001c4e:	b108      	cbz	r0, 8001c54 <dir_register+0x14>
}
 8001c50:	4628      	mov	r0, r5
 8001c52:	bd70      	pop	{r4, r5, r6, pc}
		res = move_window(fs, dp->sect);
 8001c54:	69a1      	ldr	r1, [r4, #24]
 8001c56:	4630      	mov	r0, r6
 8001c58:	f7ff fa10 	bl	800107c <move_window>
		if (res == FR_OK) {
 8001c5c:	4605      	mov	r5, r0
 8001c5e:	2800      	cmp	r0, #0
 8001c60:	d1f6      	bne.n	8001c50 <dir_register+0x10>
			memset(dp->dir, 0, SZDIRE);	/* Clean the entry */
 8001c62:	2220      	movs	r2, #32
 8001c64:	2100      	movs	r1, #0
 8001c66:	69e0      	ldr	r0, [r4, #28]
 8001c68:	f000 fb0c 	bl	8002284 <memset>
			memcpy(dp->dir + DIR_Name, dp->fn, 11);	/* Put SFN */
 8001c6c:	69e3      	ldr	r3, [r4, #28]
 8001c6e:	6a21      	ldr	r1, [r4, #32]
 8001c70:	6a62      	ldr	r2, [r4, #36]	@ 0x24
 8001c72:	6019      	str	r1, [r3, #0]
 8001c74:	605a      	str	r2, [r3, #4]
 8001c76:	8d21      	ldrh	r1, [r4, #40]	@ 0x28
 8001c78:	f894 202a 	ldrb.w	r2, [r4, #42]	@ 0x2a
 8001c7c:	8119      	strh	r1, [r3, #8]
 8001c7e:	729a      	strb	r2, [r3, #10]
			fs->wflag = 1;
 8001c80:	2301      	movs	r3, #1
 8001c82:	7133      	strb	r3, [r6, #4]
 8001c84:	e7e4      	b.n	8001c50 <dir_register+0x10>
	...

08001c88 <sync_fs>:
{
 8001c88:	b570      	push	{r4, r5, r6, lr}
 8001c8a:	4604      	mov	r4, r0
	res = sync_window(fs);
 8001c8c:	f7ff f9d2 	bl	8001034 <sync_window>
	if (res == FR_OK) {
 8001c90:	4605      	mov	r5, r0
 8001c92:	b948      	cbnz	r0, 8001ca8 <sync_fs+0x20>
		if (fs->fsi_flag == 1) {	/* Allocation changed? */
 8001c94:	7963      	ldrb	r3, [r4, #5]
 8001c96:	2b01      	cmp	r3, #1
 8001c98:	d008      	beq.n	8001cac <sync_fs+0x24>
		if (disk_ioctl(fs->pdrv, CTRL_SYNC, 0) != RES_OK) res = FR_DISK_ERR;
 8001c9a:	2200      	movs	r2, #0
 8001c9c:	4611      	mov	r1, r2
 8001c9e:	7860      	ldrb	r0, [r4, #1]
 8001ca0:	f7ff f846 	bl	8000d30 <disk_ioctl>
 8001ca4:	b100      	cbz	r0, 8001ca8 <sync_fs+0x20>
 8001ca6:	2501      	movs	r5, #1
}
 8001ca8:	4628      	mov	r0, r5
 8001caa:	bd70      	pop	{r4, r5, r6, pc}
			fs->fsi_flag = 0;
 8001cac:	2300      	movs	r3, #0
 8001cae:	7163      	strb	r3, [r4, #5]
			if (fs->fs_type == FS_FAT32) {	/* FAT32: Update FSInfo sector */
 8001cb0:	7823      	ldrb	r3, [r4, #0]
 8001cb2:	2b03      	cmp	r3, #3
 8001cb4:	d1f1      	bne.n	8001c9a <sync_fs+0x12>
				memset(fs->win, 0, sizeof fs->win);
 8001cb6:	f104 0630 	add.w	r6, r4, #48	@ 0x30
 8001cba:	f44f 7200 	mov.w	r2, #512	@ 0x200
 8001cbe:	2100      	movs	r1, #0
 8001cc0:	4630      	mov	r0, r6
 8001cc2:	f000 fadf 	bl	8002284 <memset>
				st_32(fs->win + FSI_LeadSig, 0x41615252);		/* Leading signature */
 8001cc6:	4910      	ldr	r1, [pc, #64]	@ (8001d08 <sync_fs+0x80>)
 8001cc8:	4630      	mov	r0, r6
 8001cca:	f7ff f927 	bl	8000f1c <st_32>
				st_32(fs->win + FSI_StrucSig, 0x61417272);		/* Structure signature */
 8001cce:	490f      	ldr	r1, [pc, #60]	@ (8001d0c <sync_fs+0x84>)
 8001cd0:	f504 7005 	add.w	r0, r4, #532	@ 0x214
 8001cd4:	f7ff f922 	bl	8000f1c <st_32>
				st_32(fs->win + FSI_Free_Count, fs->free_clst);	/* Number of free clusters */
 8001cd8:	6921      	ldr	r1, [r4, #16]
 8001cda:	f504 7006 	add.w	r0, r4, #536	@ 0x218
 8001cde:	f7ff f91d 	bl	8000f1c <st_32>
				st_32(fs->win + FSI_Nxt_Free, fs->last_clst);	/* Last allocated culuster */
 8001ce2:	68e1      	ldr	r1, [r4, #12]
 8001ce4:	f504 7007 	add.w	r0, r4, #540	@ 0x21c
 8001ce8:	f7ff f918 	bl	8000f1c <st_32>
				st_32(fs->win + FSI_TrailSig, 0xAA550000);		/* Trailing signature */
 8001cec:	4908      	ldr	r1, [pc, #32]	@ (8001d10 <sync_fs+0x88>)
 8001cee:	f504 700b 	add.w	r0, r4, #556	@ 0x22c
 8001cf2:	f7ff f913 	bl	8000f1c <st_32>
				disk_write(fs->pdrv, fs->win, fs->winsect = fs->volbase + 1, 1);	/* Write it into the FSInfo sector (Next to VBR) */
 8001cf6:	6a22      	ldr	r2, [r4, #32]
 8001cf8:	3201      	adds	r2, #1
 8001cfa:	61e2      	str	r2, [r4, #28]
 8001cfc:	2301      	movs	r3, #1
 8001cfe:	4631      	mov	r1, r6
 8001d00:	7860      	ldrb	r0, [r4, #1]
 8001d02:	f7fe ffe5 	bl	8000cd0 <disk_write>
 8001d06:	e7c8      	b.n	8001c9a <sync_fs+0x12>
 8001d08:	41615252 	.word	0x41615252
 8001d0c:	61417272 	.word	0x61417272
 8001d10:	aa550000 	.word	0xaa550000

08001d14 <f_mount>:
FRESULT f_mount (
	FATFS* fs,			/* Pointer to the filesystem object to be registered (NULL:unmount)*/
	const TCHAR* path,	/* Logical drive number to be mounted/unmounted */
	BYTE opt			/* Mount option: 0=Do not mount (delayed mount), 1=Mount immediately */
)
{
 8001d14:	b510      	push	{r4, lr}
 8001d16:	b084      	sub	sp, #16
 8001d18:	9001      	str	r0, [sp, #4]
 8001d1a:	9100      	str	r1, [sp, #0]
 8001d1c:	4614      	mov	r4, r2
	FATFS *cfs;
	int vol;
	FRESULT res;
	const TCHAR *rp = path;
 8001d1e:	9103      	str	r1, [sp, #12]


	/* Get volume ID (logical drive number) */
	vol = get_ldnumber(&rp);
 8001d20:	a803      	add	r0, sp, #12
 8001d22:	f7ff f93b 	bl	8000f9c <get_ldnumber>
	if (vol < 0) return FR_INVALID_DRIVE;
 8001d26:	2800      	cmp	r0, #0
 8001d28:	db1c      	blt.n	8001d64 <f_mount+0x50>

	cfs = FatFs[vol];			/* Pointer to the filesystem object of the volume */
 8001d2a:	4b0f      	ldr	r3, [pc, #60]	@ (8001d68 <f_mount+0x54>)
 8001d2c:	f853 3020 	ldr.w	r3, [r3, r0, lsl #2]
	if (cfs) {					/* Unregister current filesystem object */
 8001d30:	b123      	cbz	r3, 8001d3c <f_mount+0x28>
		FatFs[vol] = 0;
 8001d32:	2200      	movs	r2, #0
 8001d34:	490c      	ldr	r1, [pc, #48]	@ (8001d68 <f_mount+0x54>)
 8001d36:	f841 2020 	str.w	r2, [r1, r0, lsl #2]
		clear_share(cfs);
#endif
#if FF_FS_REENTRANT				/* Discard mutex of the current volume */
		ff_mutex_delete(vol);
#endif
		cfs->fs_type = 0;		/* Invalidate the filesystem object to be unregistered */
 8001d3a:	701a      	strb	r2, [r3, #0]
	}

	if (fs) {					/* Register new filesystem object */
 8001d3c:	9b01      	ldr	r3, [sp, #4]
 8001d3e:	b13b      	cbz	r3, 8001d50 <f_mount+0x3c>
		fs->pdrv = LD2PD(vol);	/* Volume hosting physical drive */
 8001d40:	7058      	strb	r0, [r3, #1]
			}
			SysLock = 1;		/* System mutex is ready */
		}
#endif
#endif
		fs->fs_type = 0;		/* Invalidate the new filesystem object */
 8001d42:	9b01      	ldr	r3, [sp, #4]
 8001d44:	2200      	movs	r2, #0
 8001d46:	701a      	strb	r2, [r3, #0]
		FatFs[vol] = fs;		/* Register it */
 8001d48:	4b07      	ldr	r3, [pc, #28]	@ (8001d68 <f_mount+0x54>)
 8001d4a:	9a01      	ldr	r2, [sp, #4]
 8001d4c:	f843 2020 	str.w	r2, [r3, r0, lsl #2]
	}

	if (opt == 0) return FR_OK;	/* Do not mount now, it will be mounted in subsequent file functions */
 8001d50:	b914      	cbnz	r4, 8001d58 <f_mount+0x44>
 8001d52:	4620      	mov	r0, r4

	res = mount_volume(&path, &fs, 0);	/* Force mounted the volume in this function */
	LEAVE_FF(fs, res);
}
 8001d54:	b004      	add	sp, #16
 8001d56:	bd10      	pop	{r4, pc}
	res = mount_volume(&path, &fs, 0);	/* Force mounted the volume in this function */
 8001d58:	2200      	movs	r2, #0
 8001d5a:	a901      	add	r1, sp, #4
 8001d5c:	4668      	mov	r0, sp
 8001d5e:	f7ff fa4b 	bl	80011f8 <mount_volume>
	LEAVE_FF(fs, res);
 8001d62:	e7f7      	b.n	8001d54 <f_mount+0x40>
	if (vol < 0) return FR_INVALID_DRIVE;
 8001d64:	200b      	movs	r0, #11
 8001d66:	e7f5      	b.n	8001d54 <f_mount+0x40>
 8001d68:	20001018 	.word	0x20001018

08001d6c <f_open>:
FRESULT f_open (
	FIL* fp,			/* Pointer to the blank file object */
	const TCHAR* path,	/* Pointer to the file name */
	BYTE mode			/* Access mode and open mode flags */
)
{
 8001d6c:	e92d 43f0 	stmdb	sp!, {r4, r5, r6, r7, r8, r9, lr}
 8001d70:	b08f      	sub	sp, #60	@ 0x3c
 8001d72:	9101      	str	r1, [sp, #4]
	DIR dj;
	FATFS *fs;
	DEF_NAMEBUFF


	if (!fp) return FR_INVALID_OBJECT;	/* Reject null pointer */
 8001d74:	2800      	cmp	r0, #0
 8001d76:	f000 80db 	beq.w	8001f30 <f_open+0x1c4>
 8001d7a:	4614      	mov	r4, r2
 8001d7c:	4606      	mov	r6, r0

	/* Get logical drive number and mount the volume if needed */
	mode &= FF_FS_READONLY ? FA_READ : FA_READ | FA_WRITE | FA_CREATE_ALWAYS | FA_CREATE_NEW | FA_OPEN_ALWAYS | FA_OPEN_APPEND;
 8001d7e:	f002 073f 	and.w	r7, r2, #63	@ 0x3f
	res = mount_volume(&path, &fs, mode);
 8001d82:	463a      	mov	r2, r7
 8001d84:	a902      	add	r1, sp, #8
 8001d86:	a801      	add	r0, sp, #4
 8001d88:	f7ff fa36 	bl	80011f8 <mount_volume>

	if (res == FR_OK) {
 8001d8c:	4605      	mov	r5, r0
 8001d8e:	b128      	cbz	r0, 8001d9c <f_open+0x30>
		}

		FREE_NAMEBUFF();
	}

	if (res != FR_OK) fp->obj.fs = 0;	/* Invalidate file object on error */
 8001d90:	2300      	movs	r3, #0
 8001d92:	6033      	str	r3, [r6, #0]

	LEAVE_FF(fs, res);
}
 8001d94:	4628      	mov	r0, r5
 8001d96:	b00f      	add	sp, #60	@ 0x3c
 8001d98:	e8bd 83f0 	ldmia.w	sp!, {r4, r5, r6, r7, r8, r9, pc}
		fp->obj.fs = fs;
 8001d9c:	9b02      	ldr	r3, [sp, #8]
 8001d9e:	6033      	str	r3, [r6, #0]
		dj.obj.fs = fs;
 8001da0:	9303      	str	r3, [sp, #12]
		res = follow_path(&dj, path);	/* Follow the file path */
 8001da2:	9901      	ldr	r1, [sp, #4]
 8001da4:	a803      	add	r0, sp, #12
 8001da6:	f7ff ff05 	bl	8001bb4 <follow_path>
		if (res == FR_OK) {
 8001daa:	4605      	mov	r5, r0
 8001dac:	b918      	cbnz	r0, 8001db6 <f_open+0x4a>
			if (dj.fn[NSFLAG] & NS_NONAME) {	/* Origin directory itself? */
 8001dae:	f99d 3037 	ldrsb.w	r3, [sp, #55]	@ 0x37
 8001db2:	2b00      	cmp	r3, #0
 8001db4:	db45      	blt.n	8001e42 <f_open+0xd6>
		if (mode & (FA_CREATE_ALWAYS | FA_OPEN_ALWAYS | FA_CREATE_NEW)) {
 8001db6:	f014 0f1c 	tst.w	r4, #28
 8001dba:	d053      	beq.n	8001e64 <f_open+0xf8>
			if (res != FR_OK) {					/* No file, create new */
 8001dbc:	2d00      	cmp	r5, #0
 8001dbe:	d047      	beq.n	8001e50 <f_open+0xe4>
				if (res == FR_NO_FILE) {		/* There is no file to open, create a new entry */
 8001dc0:	2d04      	cmp	r5, #4
 8001dc2:	d040      	beq.n	8001e46 <f_open+0xda>
				mode |= FA_CREATE_ALWAYS;		/* File is created */
 8001dc4:	f047 0708 	orr.w	r7, r7, #8
			if (res == FR_OK && (mode & FA_CREATE_ALWAYS)) {	/* Truncate the file if overwrite mode */
 8001dc8:	2d00      	cmp	r5, #0
 8001dca:	d1e1      	bne.n	8001d90 <f_open+0x24>
 8001dcc:	f017 0f08 	tst.w	r7, #8
 8001dd0:	d058      	beq.n	8001e84 <f_open+0x118>
					st_32(dj.dir + DIR_CrtTime, tm);	/* Set created time */
 8001dd2:	4c58      	ldr	r4, [pc, #352]	@ (8001f34 <f_open+0x1c8>)
 8001dd4:	4621      	mov	r1, r4
 8001dd6:	980a      	ldr	r0, [sp, #40]	@ 0x28
 8001dd8:	300e      	adds	r0, #14
 8001dda:	f7ff f89f 	bl	8000f1c <st_32>
					st_32(dj.dir + DIR_ModTime, tm);	/* Set modified time (tmp setting) */
 8001dde:	4621      	mov	r1, r4
 8001de0:	980a      	ldr	r0, [sp, #40]	@ 0x28
 8001de2:	3016      	adds	r0, #22
 8001de4:	f7ff f89a 	bl	8000f1c <st_32>
					cl = ld_clust(fs, dj.dir);			/* Get current cluster chain */
 8001de8:	f8dd 8008 	ldr.w	r8, [sp, #8]
 8001dec:	f8dd 9028 	ldr.w	r9, [sp, #40]	@ 0x28
 8001df0:	4649      	mov	r1, r9
 8001df2:	4640      	mov	r0, r8
 8001df4:	f7ff f8ac 	bl	8000f50 <ld_clust>
 8001df8:	4604      	mov	r4, r0
					dj.dir[DIR_Attr] = AM_ARC;			/* Reset attribute */
 8001dfa:	2320      	movs	r3, #32
 8001dfc:	f889 300b 	strb.w	r3, [r9, #11]
					st_clust(fs, dj.dir, 0);			/* Reset file allocation info */
 8001e00:	2200      	movs	r2, #0
 8001e02:	990a      	ldr	r1, [sp, #40]	@ 0x28
 8001e04:	4640      	mov	r0, r8
 8001e06:	f7ff f8b6 	bl	8000f76 <st_clust>
					st_32(dj.dir + DIR_FileSize, 0);
 8001e0a:	2100      	movs	r1, #0
 8001e0c:	980a      	ldr	r0, [sp, #40]	@ 0x28
 8001e0e:	301c      	adds	r0, #28
 8001e10:	f7ff f884 	bl	8000f1c <st_32>
					fs->wflag = 1;
 8001e14:	9b02      	ldr	r3, [sp, #8]
 8001e16:	2201      	movs	r2, #1
 8001e18:	711a      	strb	r2, [r3, #4]
					if (cl != 0) {						/* Remove the cluster chain if exist */
 8001e1a:	b39c      	cbz	r4, 8001e84 <f_open+0x118>
						LBA_t sc = fs->winsect;
 8001e1c:	f8d3 801c 	ldr.w	r8, [r3, #28]
						res = remove_chain(&dj.obj, cl, 0);
 8001e20:	2200      	movs	r2, #0
 8001e22:	4621      	mov	r1, r4
 8001e24:	a803      	add	r0, sp, #12
 8001e26:	f7ff fd15 	bl	8001854 <remove_chain>
						if (res == FR_OK) {
 8001e2a:	4605      	mov	r5, r0
 8001e2c:	2800      	cmp	r0, #0
 8001e2e:	d1af      	bne.n	8001d90 <f_open+0x24>
							res = move_window(fs, sc);
 8001e30:	4641      	mov	r1, r8
 8001e32:	9802      	ldr	r0, [sp, #8]
 8001e34:	f7ff f922 	bl	800107c <move_window>
 8001e38:	4605      	mov	r5, r0
							fs->last_clst = cl - 1;		/* Reuse the cluster hole */
 8001e3a:	3c01      	subs	r4, #1
 8001e3c:	9b02      	ldr	r3, [sp, #8]
 8001e3e:	60dc      	str	r4, [r3, #12]
 8001e40:	e020      	b.n	8001e84 <f_open+0x118>
				res = FR_INVALID_NAME;
 8001e42:	2506      	movs	r5, #6
 8001e44:	e7b7      	b.n	8001db6 <f_open+0x4a>
					res = dir_register(&dj);
 8001e46:	a803      	add	r0, sp, #12
 8001e48:	f7ff fefa 	bl	8001c40 <dir_register>
 8001e4c:	4605      	mov	r5, r0
 8001e4e:	e7b9      	b.n	8001dc4 <f_open+0x58>
				if (mode & FA_CREATE_NEW) {
 8001e50:	f014 0f04 	tst.w	r4, #4
 8001e54:	d115      	bne.n	8001e82 <f_open+0x116>
					if (dj.obj.attr & (AM_RDO | AM_DIR)) res = FR_DENIED;	/* Cannot overwrite it (R/O or DIR) */
 8001e56:	f89d 3012 	ldrb.w	r3, [sp, #18]
 8001e5a:	f013 0f11 	tst.w	r3, #17
 8001e5e:	d0b3      	beq.n	8001dc8 <f_open+0x5c>
 8001e60:	2507      	movs	r5, #7
 8001e62:	e795      	b.n	8001d90 <f_open+0x24>
			if (res == FR_OK) {					/* Is the object exsiting? */
 8001e64:	2d00      	cmp	r5, #0
 8001e66:	d193      	bne.n	8001d90 <f_open+0x24>
				if (dj.obj.attr & AM_DIR) {		/* File open against a directory */
 8001e68:	f89d 3012 	ldrb.w	r3, [sp, #18]
 8001e6c:	f013 0f10 	tst.w	r3, #16
 8001e70:	d15a      	bne.n	8001f28 <f_open+0x1bc>
					if ((mode & FA_WRITE) && (dj.obj.attr & AM_RDO)) { /* Write mode open against R/O file */
 8001e72:	f014 0f02 	tst.w	r4, #2
 8001e76:	d005      	beq.n	8001e84 <f_open+0x118>
 8001e78:	f013 0f01 	tst.w	r3, #1
 8001e7c:	d002      	beq.n	8001e84 <f_open+0x118>
						res = FR_DENIED;
 8001e7e:	2507      	movs	r5, #7
 8001e80:	e786      	b.n	8001d90 <f_open+0x24>
					res = FR_EXIST;				/* Cannot create as new file */
 8001e82:	2508      	movs	r5, #8
		if (res == FR_OK) {
 8001e84:	2d00      	cmp	r5, #0
 8001e86:	d183      	bne.n	8001d90 <f_open+0x24>
			if (mode & FA_CREATE_ALWAYS) mode |= FA_MODIFIED;	/* Set file change flag if created or overwritten */
 8001e88:	f017 0f08 	tst.w	r7, #8
 8001e8c:	d001      	beq.n	8001e92 <f_open+0x126>
 8001e8e:	f047 0740 	orr.w	r7, r7, #64	@ 0x40
			fp->dir_sect = fs->winsect;			/* Pointer to the directory entry */
 8001e92:	f8dd 9008 	ldr.w	r9, [sp, #8]
 8001e96:	f8d9 301c 	ldr.w	r3, [r9, #28]
 8001e9a:	6233      	str	r3, [r6, #32]
			fp->dir_ptr = dj.dir;
 8001e9c:	f8dd 8028 	ldr.w	r8, [sp, #40]	@ 0x28
 8001ea0:	f8c6 8024 	str.w	r8, [r6, #36]	@ 0x24
				fp->obj.sclust = ld_clust(fs, dj.dir);					/* Get object allocation info */
 8001ea4:	4641      	mov	r1, r8
 8001ea6:	4648      	mov	r0, r9
 8001ea8:	f7ff f852 	bl	8000f50 <ld_clust>
 8001eac:	4604      	mov	r4, r0
 8001eae:	60b0      	str	r0, [r6, #8]
				fp->obj.objsize = ld_32(dj.dir + DIR_FileSize);
 8001eb0:	f108 001c 	add.w	r0, r8, #28
 8001eb4:	f7ff f823 	bl	8000efe <ld_32>
 8001eb8:	4680      	mov	r8, r0
 8001eba:	60f0      	str	r0, [r6, #12]
			fp->obj.id = fs->id;	/* Set current volume mount ID */
 8001ebc:	f8b9 3006 	ldrh.w	r3, [r9, #6]
 8001ec0:	80b3      	strh	r3, [r6, #4]
			fp->flag = mode;	/* Set file access mode */
 8001ec2:	7437      	strb	r7, [r6, #16]
			fp->err = 0;		/* Clear error flag */
 8001ec4:	2300      	movs	r3, #0
 8001ec6:	7473      	strb	r3, [r6, #17]
			fp->sect = 0;		/* Invalidate current data sector */
 8001ec8:	61f3      	str	r3, [r6, #28]
			fp->fptr = 0;		/* Set file pointer top of the file */
 8001eca:	6173      	str	r3, [r6, #20]
			if ((mode & FA_SEEKEND) && fp->obj.objsize > 0) {	/* Seek to end of file if FA_OPEN_APPEND is specified */
 8001ecc:	f017 0f20 	tst.w	r7, #32
 8001ed0:	d026      	beq.n	8001f20 <f_open+0x1b4>
 8001ed2:	b328      	cbz	r0, 8001f20 <f_open+0x1b4>
				fp->fptr = fp->obj.objsize;			/* Offset to seek */
 8001ed4:	6170      	str	r0, [r6, #20]
				bcs = (DWORD)fs->csize * SS(fs);	/* Cluster size in byte */
 8001ed6:	f8b9 700a 	ldrh.w	r7, [r9, #10]
 8001eda:	027f      	lsls	r7, r7, #9
				for (ofs = fp->obj.objsize; res == FR_OK && ofs > bcs; ofs -= bcs) {
 8001edc:	e002      	b.n	8001ee4 <f_open+0x178>
					if (clst <= 1) res = FR_INT_ERR;
 8001ede:	2502      	movs	r5, #2
				for (ofs = fp->obj.objsize; res == FR_OK && ofs > bcs; ofs -= bcs) {
 8001ee0:	eba8 0807 	sub.w	r8, r8, r7
 8001ee4:	b96d      	cbnz	r5, 8001f02 <f_open+0x196>
 8001ee6:	45b8      	cmp	r8, r7
 8001ee8:	d90b      	bls.n	8001f02 <f_open+0x196>
					clst = get_fat(&fp->obj, clst);
 8001eea:	4621      	mov	r1, r4
 8001eec:	4630      	mov	r0, r6
 8001eee:	f7ff fb5d 	bl	80015ac <get_fat>
 8001ef2:	4604      	mov	r4, r0
					if (clst <= 1) res = FR_INT_ERR;
 8001ef4:	2801      	cmp	r0, #1
 8001ef6:	d9f2      	bls.n	8001ede <f_open+0x172>
					if (clst == 0xFFFFFFFF) res = FR_DISK_ERR;
 8001ef8:	f1b0 3fff 	cmp.w	r0, #4294967295	@ 0xffffffff
 8001efc:	d1f0      	bne.n	8001ee0 <f_open+0x174>
 8001efe:	2501      	movs	r5, #1
 8001f00:	e7ee      	b.n	8001ee0 <f_open+0x174>
				fp->clust = clst;
 8001f02:	61b4      	str	r4, [r6, #24]
				if (res == FR_OK && ofs % SS(fs)) {	/* Fill sector buffer if not on the sector boundary */
 8001f04:	2d00      	cmp	r5, #0
 8001f06:	f47f af43 	bne.w	8001d90 <f_open+0x24>
 8001f0a:	f3c8 0308 	ubfx	r3, r8, #0, #9
 8001f0e:	b13b      	cbz	r3, 8001f20 <f_open+0x1b4>
					LBA_t sec = clst2sect(fs, clst);
 8001f10:	4621      	mov	r1, r4
 8001f12:	9802      	ldr	r0, [sp, #8]
 8001f14:	f7ff f810 	bl	8000f38 <clst2sect>
					if (sec == 0) {
 8001f18:	b140      	cbz	r0, 8001f2c <f_open+0x1c0>
						fp->sect = sec + (DWORD)(ofs / SS(fs));
 8001f1a:	eb00 2358 	add.w	r3, r0, r8, lsr #9
 8001f1e:	61f3      	str	r3, [r6, #28]
	if (res != FR_OK) fp->obj.fs = 0;	/* Invalidate file object on error */
 8001f20:	2d00      	cmp	r5, #0
 8001f22:	f43f af37 	beq.w	8001d94 <f_open+0x28>
 8001f26:	e733      	b.n	8001d90 <f_open+0x24>
					res = FR_NO_FILE;
 8001f28:	2504      	movs	r5, #4
 8001f2a:	e731      	b.n	8001d90 <f_open+0x24>
						res = FR_INT_ERR;
 8001f2c:	2502      	movs	r5, #2
 8001f2e:	e72f      	b.n	8001d90 <f_open+0x24>
	if (!fp) return FR_INVALID_OBJECT;	/* Reject null pointer */
 8001f30:	2509      	movs	r5, #9
 8001f32:	e72f      	b.n	8001d94 <f_open+0x28>
 8001f34:	5c210000 	.word	0x5c210000

08001f38 <f_write>:
	FIL* fp,			/* Open file to be written */
	const void* buff,	/* Data to be written */
	UINT btw,			/* Number of bytes to write */
	UINT* bw			/* Number of bytes written */
)
{
 8001f38:	e92d 4ff0 	stmdb	sp!, {r4, r5, r6, r7, r8, r9, sl, fp, lr}
 8001f3c:	b085      	sub	sp, #20
 8001f3e:	4604      	mov	r4, r0
 8001f40:	460f      	mov	r7, r1
 8001f42:	4616      	mov	r6, r2
 8001f44:	4699      	mov	r9, r3
	LBA_t sect;
	UINT wcnt, cc, csect;
	const BYTE *wbuff = (const BYTE*)buff;


	*bw = 0;	/* Clear write byte counter */
 8001f46:	2300      	movs	r3, #0
 8001f48:	f8c9 3000 	str.w	r3, [r9]
	res = validate(&fp->obj, &fs);			/* Check validity of the file object */
 8001f4c:	a903      	add	r1, sp, #12
 8001f4e:	f7ff f84e 	bl	8000fee <validate>
	if (res != FR_OK || (res = (FRESULT)fp->err) != FR_OK) LEAVE_FF(fs, res);	/* Check validity */
 8001f52:	4682      	mov	sl, r0
 8001f54:	2800      	cmp	r0, #0
 8001f56:	d146      	bne.n	8001fe6 <f_write+0xae>
 8001f58:	f894 a011 	ldrb.w	sl, [r4, #17]
 8001f5c:	f1ba 0f00 	cmp.w	sl, #0
 8001f60:	d141      	bne.n	8001fe6 <f_write+0xae>
	if (!(fp->flag & FA_WRITE)) LEAVE_FF(fs, FR_DENIED);	/* Check access mode */
 8001f62:	7c23      	ldrb	r3, [r4, #16]
 8001f64:	f013 0f02 	tst.w	r3, #2
 8001f68:	f000 80d1 	beq.w	800210e <f_write+0x1d6>

	/* Check fptr wrap-around (file size cannot reach 4 GiB at FAT volume) */
	if ((!FF_FS_EXFAT || fs->fs_type != FS_EXFAT) && (DWORD)(fp->fptr + btw) < (DWORD)fp->fptr) {
 8001f6c:	6963      	ldr	r3, [r4, #20]
 8001f6e:	42f3      	cmn	r3, r6
 8001f70:	f0c0 809b 	bcc.w	80020aa <f_write+0x172>
		btw = (UINT)(0xFFFFFFFF - (DWORD)fp->fptr);
 8001f74:	43de      	mvns	r6, r3
 8001f76:	e098      	b.n	80020aa <f_write+0x172>
					if (fp->cltbl) {
						clst = clmt_clust(fp, fp->fptr);	/* Get cluster# from the CLMT */
					} else
#endif
					{
						clst = create_chain(&fp->obj, fp->clust);	/* Follow or stretch cluster chain on the FAT */
 8001f78:	69a1      	ldr	r1, [r4, #24]
 8001f7a:	4620      	mov	r0, r4
 8001f7c:	f7ff fbd4 	bl	8001728 <create_chain>
					}
				}
				if (clst == 0) break;		/* Could not allocate a new cluster (disk full) */
 8001f80:	2800      	cmp	r0, #0
 8001f82:	f000 80bf 	beq.w	8002104 <f_write+0x1cc>
				if (clst == 1) ABORT(fs, FR_INT_ERR);
 8001f86:	2801      	cmp	r0, #1
 8001f88:	d031      	beq.n	8001fee <f_write+0xb6>
				if (clst == 0xFFFFFFFF) ABORT(fs, FR_DISK_ERR);
 8001f8a:	f1b0 3fff 	cmp.w	r0, #4294967295	@ 0xffffffff
 8001f8e:	d033      	beq.n	8001ff8 <f_write+0xc0>
				fp->clust = clst;			/* Update current cluster */
 8001f90:	61a0      	str	r0, [r4, #24]
				if (fp->obj.sclust == 0) fp->obj.sclust = clst;	/* Set start cluster if the first write */
 8001f92:	68a3      	ldr	r3, [r4, #8]
 8001f94:	b903      	cbnz	r3, 8001f98 <f_write+0x60>
 8001f96:	60a0      	str	r0, [r4, #8]
			}
#if FF_FS_TINY
			if (fs->winsect == fp->sect && sync_window(fs) != FR_OK) ABORT(fs, FR_DISK_ERR);	/* Write-back sector cache */
 8001f98:	9803      	ldr	r0, [sp, #12]
 8001f9a:	69c2      	ldr	r2, [r0, #28]
 8001f9c:	69e3      	ldr	r3, [r4, #28]
 8001f9e:	429a      	cmp	r2, r3
 8001fa0:	d02f      	beq.n	8002002 <f_write+0xca>
			if (fp->flag & FA_DIRTY) {		/* Write-back sector cache */
				if (disk_write(fs->pdrv, fp->buf, fp->sect, 1) != RES_OK) ABORT(fs, FR_DISK_ERR);
				fp->flag &= (BYTE)~FA_DIRTY;
			}
#endif
			sect = clst2sect(fs, fp->clust);	/* Get current sector */
 8001fa2:	f8dd b00c 	ldr.w	fp, [sp, #12]
 8001fa6:	69a1      	ldr	r1, [r4, #24]
 8001fa8:	4658      	mov	r0, fp
 8001faa:	f7fe ffc5 	bl	8000f38 <clst2sect>
			if (sect == 0) ABORT(fs, FR_INT_ERR);
 8001fae:	b388      	cbz	r0, 8002014 <f_write+0xdc>
			sect += csect;
 8001fb0:	eb08 0300 	add.w	r3, r8, r0
 8001fb4:	9301      	str	r3, [sp, #4]
			cc = btw / SS(fs);				/* When remaining bytes >= sector size, */
 8001fb6:	0a75      	lsrs	r5, r6, #9
			if (cc > 0) {					/* Write maximum contiguous sectors directly */
 8001fb8:	f5b6 7f00 	cmp.w	r6, #512	@ 0x200
 8001fbc:	d345      	bcc.n	800204a <f_write+0x112>
				if (csect + cc > fs->csize) {	/* Clip at cluster boundary */
 8001fbe:	eb08 0305 	add.w	r3, r8, r5
 8001fc2:	f8bb 200a 	ldrh.w	r2, [fp, #10]
 8001fc6:	4293      	cmp	r3, r2
 8001fc8:	d901      	bls.n	8001fce <f_write+0x96>
					cc = fs->csize - csect;
 8001fca:	eba2 0508 	sub.w	r5, r2, r8
				}
				if (disk_write(fs->pdrv, wbuff, sect, cc) != RES_OK) ABORT(fs, FR_DISK_ERR);
 8001fce:	462b      	mov	r3, r5
 8001fd0:	9a01      	ldr	r2, [sp, #4]
 8001fd2:	4639      	mov	r1, r7
 8001fd4:	f89b 0001 	ldrb.w	r0, [fp, #1]
 8001fd8:	f7fe fe7a 	bl	8000cd0 <disk_write>
 8001fdc:	b1f8      	cbz	r0, 800201e <f_write+0xe6>
 8001fde:	f04f 0a01 	mov.w	sl, #1
 8001fe2:	f884 a011 	strb.w	sl, [r4, #17]
	}

	fp->flag |= FA_MODIFIED;				/* Set file change flag */

	LEAVE_FF(fs, FR_OK);
}
 8001fe6:	4650      	mov	r0, sl
 8001fe8:	b005      	add	sp, #20
 8001fea:	e8bd 8ff0 	ldmia.w	sp!, {r4, r5, r6, r7, r8, r9, sl, fp, pc}
				if (clst == 1) ABORT(fs, FR_INT_ERR);
 8001fee:	f04f 0a02 	mov.w	sl, #2
 8001ff2:	f884 a011 	strb.w	sl, [r4, #17]
 8001ff6:	e7f6      	b.n	8001fe6 <f_write+0xae>
				if (clst == 0xFFFFFFFF) ABORT(fs, FR_DISK_ERR);
 8001ff8:	f04f 0a01 	mov.w	sl, #1
 8001ffc:	f884 a011 	strb.w	sl, [r4, #17]
 8002000:	e7f1      	b.n	8001fe6 <f_write+0xae>
			if (fs->winsect == fp->sect && sync_window(fs) != FR_OK) ABORT(fs, FR_DISK_ERR);	/* Write-back sector cache */
 8002002:	f7ff f817 	bl	8001034 <sync_window>
 8002006:	2800      	cmp	r0, #0
 8002008:	d0cb      	beq.n	8001fa2 <f_write+0x6a>
 800200a:	f04f 0a01 	mov.w	sl, #1
 800200e:	f884 a011 	strb.w	sl, [r4, #17]
 8002012:	e7e8      	b.n	8001fe6 <f_write+0xae>
			if (sect == 0) ABORT(fs, FR_INT_ERR);
 8002014:	f04f 0a02 	mov.w	sl, #2
 8002018:	f884 a011 	strb.w	sl, [r4, #17]
 800201c:	e7e3      	b.n	8001fe6 <f_write+0xae>
				if (fs->winsect - sect < cc) {	/* Refill sector cache if it gets invalidated by the direct write */
 800201e:	f8dd 800c 	ldr.w	r8, [sp, #12]
 8002022:	f8d8 101c 	ldr.w	r1, [r8, #28]
 8002026:	9b01      	ldr	r3, [sp, #4]
 8002028:	1ac9      	subs	r1, r1, r3
 800202a:	42a9      	cmp	r1, r5
 800202c:	d301      	bcc.n	8002032 <f_write+0xfa>
				wcnt = SS(fs) * cc;		/* Number of bytes transferred */
 800202e:	026d      	lsls	r5, r5, #9
				continue;
 8002030:	e02c      	b.n	800208c <f_write+0x154>
					memcpy(fs->win, wbuff + ((fs->winsect - sect) * SS(fs)), SS(fs));
 8002032:	f44f 7200 	mov.w	r2, #512	@ 0x200
 8002036:	eb07 2141 	add.w	r1, r7, r1, lsl #9
 800203a:	f108 0030 	add.w	r0, r8, #48	@ 0x30
 800203e:	f000 fa07 	bl	8002450 <memcpy>
					fs->wflag = 0;
 8002042:	2300      	movs	r3, #0
 8002044:	f888 3004 	strb.w	r3, [r8, #4]
 8002048:	e7f1      	b.n	800202e <f_write+0xf6>
			if (fp->fptr >= fp->obj.objsize) {	/* Avoid silly cache filling on the growing edge */
 800204a:	6962      	ldr	r2, [r4, #20]
 800204c:	68e3      	ldr	r3, [r4, #12]
 800204e:	429a      	cmp	r2, r3
 8002050:	d246      	bcs.n	80020e0 <f_write+0x1a8>
			fp->sect = sect;
 8002052:	9b01      	ldr	r3, [sp, #4]
 8002054:	61e3      	str	r3, [r4, #28]
		wcnt = SS(fs) - (UINT)fp->fptr % SS(fs);	/* Number of bytes remains in the sector */
 8002056:	6965      	ldr	r5, [r4, #20]
 8002058:	f3c5 0508 	ubfx	r5, r5, #0, #9
 800205c:	f5c5 7500 	rsb	r5, r5, #512	@ 0x200
		if (wcnt > btw) wcnt = btw;					/* Clip it by btw if needed */
 8002060:	42ae      	cmp	r6, r5
 8002062:	d200      	bcs.n	8002066 <f_write+0x12e>
 8002064:	4635      	mov	r5, r6
		if (move_window(fs, fp->sect) != FR_OK) ABORT(fs, FR_DISK_ERR);	/* Move sector window */
 8002066:	69e1      	ldr	r1, [r4, #28]
 8002068:	9803      	ldr	r0, [sp, #12]
 800206a:	f7ff f807 	bl	800107c <move_window>
 800206e:	2800      	cmp	r0, #0
 8002070:	d143      	bne.n	80020fa <f_write+0x1c2>
		memcpy(fs->win + fp->fptr % SS(fs), wbuff, wcnt);	/* Fit data to the sector */
 8002072:	9803      	ldr	r0, [sp, #12]
 8002074:	3030      	adds	r0, #48	@ 0x30
 8002076:	6963      	ldr	r3, [r4, #20]
 8002078:	f3c3 0308 	ubfx	r3, r3, #0, #9
 800207c:	462a      	mov	r2, r5
 800207e:	4639      	mov	r1, r7
 8002080:	4418      	add	r0, r3
 8002082:	f000 f9e5 	bl	8002450 <memcpy>
		fs->wflag = 1;
 8002086:	9b03      	ldr	r3, [sp, #12]
 8002088:	2201      	movs	r2, #1
 800208a:	711a      	strb	r2, [r3, #4]
	for ( ; btw > 0; btw -= wcnt, *bw += wcnt, wbuff += wcnt, fp->fptr += wcnt, fp->obj.objsize = (fp->fptr > fp->obj.objsize) ? fp->fptr : fp->obj.objsize) {	/* Repeat until all data written */
 800208c:	1b76      	subs	r6, r6, r5
 800208e:	f8d9 3000 	ldr.w	r3, [r9]
 8002092:	442b      	add	r3, r5
 8002094:	f8c9 3000 	str.w	r3, [r9]
 8002098:	442f      	add	r7, r5
 800209a:	6963      	ldr	r3, [r4, #20]
 800209c:	442b      	add	r3, r5
 800209e:	6163      	str	r3, [r4, #20]
 80020a0:	68e2      	ldr	r2, [r4, #12]
 80020a2:	4293      	cmp	r3, r2
 80020a4:	bf38      	it	cc
 80020a6:	4613      	movcc	r3, r2
 80020a8:	60e3      	str	r3, [r4, #12]
 80020aa:	b35e      	cbz	r6, 8002104 <f_write+0x1cc>
		if (fp->fptr % SS(fs) == 0) {		/* On the sector boundary? */
 80020ac:	6963      	ldr	r3, [r4, #20]
 80020ae:	f3c3 0208 	ubfx	r2, r3, #0, #9
 80020b2:	2a00      	cmp	r2, #0
 80020b4:	d1cf      	bne.n	8002056 <f_write+0x11e>
			csect = (UINT)(fp->fptr / SS(fs)) & (fs->csize - 1);	/* Sector offset in the cluster */
 80020b6:	9a03      	ldr	r2, [sp, #12]
 80020b8:	f8b2 800a 	ldrh.w	r8, [r2, #10]
 80020bc:	f108 38ff 	add.w	r8, r8, #4294967295	@ 0xffffffff
			if (csect == 0) {				/* On the cluster boundary? */
 80020c0:	ea18 2853 	ands.w	r8, r8, r3, lsr #9
 80020c4:	f47f af68 	bne.w	8001f98 <f_write+0x60>
				if (fp->fptr == 0) {		/* On the top of the file? */
 80020c8:	2b00      	cmp	r3, #0
 80020ca:	f47f af55 	bne.w	8001f78 <f_write+0x40>
					clst = fp->obj.sclust;	/* Follow from the origin */
 80020ce:	68a0      	ldr	r0, [r4, #8]
					if (clst == 0) {		/* If no cluster is allocated, */
 80020d0:	2800      	cmp	r0, #0
 80020d2:	f47f af58 	bne.w	8001f86 <f_write+0x4e>
						clst = create_chain(&fp->obj, 0);	/* create a new cluster chain */
 80020d6:	2100      	movs	r1, #0
 80020d8:	4620      	mov	r0, r4
 80020da:	f7ff fb25 	bl	8001728 <create_chain>
 80020de:	e74f      	b.n	8001f80 <f_write+0x48>
				if (sync_window(fs) != FR_OK) ABORT(fs, FR_DISK_ERR);
 80020e0:	4658      	mov	r0, fp
 80020e2:	f7fe ffa7 	bl	8001034 <sync_window>
 80020e6:	b918      	cbnz	r0, 80020f0 <f_write+0x1b8>
				fs->winsect = sect;
 80020e8:	9b03      	ldr	r3, [sp, #12]
 80020ea:	9a01      	ldr	r2, [sp, #4]
 80020ec:	61da      	str	r2, [r3, #28]
 80020ee:	e7b0      	b.n	8002052 <f_write+0x11a>
				if (sync_window(fs) != FR_OK) ABORT(fs, FR_DISK_ERR);
 80020f0:	f04f 0a01 	mov.w	sl, #1
 80020f4:	f884 a011 	strb.w	sl, [r4, #17]
 80020f8:	e775      	b.n	8001fe6 <f_write+0xae>
		if (move_window(fs, fp->sect) != FR_OK) ABORT(fs, FR_DISK_ERR);	/* Move sector window */
 80020fa:	f04f 0a01 	mov.w	sl, #1
 80020fe:	f884 a011 	strb.w	sl, [r4, #17]
 8002102:	e770      	b.n	8001fe6 <f_write+0xae>
	fp->flag |= FA_MODIFIED;				/* Set file change flag */
 8002104:	7c23      	ldrb	r3, [r4, #16]
 8002106:	f043 0340 	orr.w	r3, r3, #64	@ 0x40
 800210a:	7423      	strb	r3, [r4, #16]
	LEAVE_FF(fs, FR_OK);
 800210c:	e76b      	b.n	8001fe6 <f_write+0xae>
	if (!(fp->flag & FA_WRITE)) LEAVE_FF(fs, FR_DENIED);	/* Check access mode */
 800210e:	f04f 0a07 	mov.w	sl, #7
 8002112:	e768      	b.n	8001fe6 <f_write+0xae>

08002114 <f_sync>:
/*-----------------------------------------------------------------------*/

FRESULT f_sync (
	FIL* fp		/* Open file to be synced */
)
{
 8002114:	b530      	push	{r4, r5, lr}
 8002116:	b083      	sub	sp, #12
 8002118:	4604      	mov	r4, r0
	FRESULT res;
	FATFS *fs;


	res = validate(&fp->obj, &fs);	/* Check validity of the file object */
 800211a:	a901      	add	r1, sp, #4
 800211c:	f7fe ff67 	bl	8000fee <validate>
	if (res == FR_OK) {
 8002120:	b918      	cbnz	r0, 800212a <f_sync+0x16>
		if (fp->flag & FA_MODIFIED) {	/* Is there any change to the file? */
 8002122:	7c23      	ldrb	r3, [r4, #16]
 8002124:	f013 0f40 	tst.w	r3, #64	@ 0x40
 8002128:	d101      	bne.n	800212e <f_sync+0x1a>
			}
		}
	}

	LEAVE_FF(fs, res);
}
 800212a:	b003      	add	sp, #12
 800212c:	bd30      	pop	{r4, r5, pc}
				res = move_window(fs, fp->dir_sect);
 800212e:	6a21      	ldr	r1, [r4, #32]
 8002130:	9801      	ldr	r0, [sp, #4]
 8002132:	f7fe ffa3 	bl	800107c <move_window>
				if (res == FR_OK) {
 8002136:	2800      	cmp	r0, #0
 8002138:	d1f7      	bne.n	800212a <f_sync+0x16>
					BYTE *dir = fp->dir_ptr;
 800213a:	6a65      	ldr	r5, [r4, #36]	@ 0x24
					dir[DIR_Attr] |= AM_ARC;					/* Set archive attribute to indicate that the file has been changed */
 800213c:	7aeb      	ldrb	r3, [r5, #11]
 800213e:	f043 0320 	orr.w	r3, r3, #32
 8002142:	72eb      	strb	r3, [r5, #11]
					st_clust(fp->obj.fs, dir, fp->obj.sclust);	/* Update file allocation information  */
 8002144:	68a2      	ldr	r2, [r4, #8]
 8002146:	4629      	mov	r1, r5
 8002148:	6820      	ldr	r0, [r4, #0]
 800214a:	f7fe ff14 	bl	8000f76 <st_clust>
					st_32(dir + DIR_FileSize, (DWORD)fp->obj.objsize);	/* Update file size */
 800214e:	68e1      	ldr	r1, [r4, #12]
 8002150:	f105 001c 	add.w	r0, r5, #28
 8002154:	f7fe fee2 	bl	8000f1c <st_32>
					st_32(dir + DIR_ModTime, GET_FATTIME());	/* Update modified time */
 8002158:	4909      	ldr	r1, [pc, #36]	@ (8002180 <f_sync+0x6c>)
 800215a:	f105 0016 	add.w	r0, r5, #22
 800215e:	f7fe fedd 	bl	8000f1c <st_32>
					st_16(dir + DIR_LstAccDate, 0);				/* Invalidate last access date */
 8002162:	2100      	movs	r1, #0
 8002164:	f105 0012 	add.w	r0, r5, #18
 8002168:	f7fe fed4 	bl	8000f14 <st_16>
					fs->wflag = 1;
 800216c:	9801      	ldr	r0, [sp, #4]
 800216e:	2301      	movs	r3, #1
 8002170:	7103      	strb	r3, [r0, #4]
					res = sync_fs(fs);							/* Restore it to the directory */
 8002172:	f7ff fd89 	bl	8001c88 <sync_fs>
					fp->flag &= (BYTE)~FA_MODIFIED;
 8002176:	7c23      	ldrb	r3, [r4, #16]
 8002178:	f023 0340 	bic.w	r3, r3, #64	@ 0x40
 800217c:	7423      	strb	r3, [r4, #16]
 800217e:	e7d4      	b.n	800212a <f_sync+0x16>
 8002180:	5c210000 	.word	0x5c210000

08002184 <f_close>:
/*-----------------------------------------------------------------------*/

FRESULT f_close (
	FIL* fp		/* Open file to be closed */
)
{
 8002184:	b510      	push	{r4, lr}
 8002186:	b082      	sub	sp, #8
 8002188:	4604      	mov	r4, r0
	FRESULT res;
	FATFS *fs;

#if !FF_FS_READONLY
	res = f_sync(fp);					/* Flush cached data */
 800218a:	f7ff ffc3 	bl	8002114 <f_sync>
	if (res == FR_OK)
 800218e:	b108      	cbz	r0, 8002194 <f_close+0x10>
			unlock_volume(fs, FR_OK);		/* Unlock volume */
#endif
		}
	}
	return res;
}
 8002190:	b002      	add	sp, #8
 8002192:	bd10      	pop	{r4, pc}
		res = validate(&fp->obj, &fs);	/* Lock volume */
 8002194:	a901      	add	r1, sp, #4
 8002196:	4620      	mov	r0, r4
 8002198:	f7fe ff29 	bl	8000fee <validate>
		if (res == FR_OK) {
 800219c:	2800      	cmp	r0, #0
 800219e:	d1f7      	bne.n	8002190 <f_close+0xc>
			fp->obj.fs = 0;	/* Invalidate file object */
 80021a0:	6020      	str	r0, [r4, #0]
 80021a2:	e7f5      	b.n	8002190 <f_close+0xc>

080021a4 <BusFault_Handler>:
    }
}

static void Default_Handler(void)
{
    while (1) {
 80021a4:	e7fe      	b.n	80021a4 <BusFault_Handler>
	...

080021a8 <Reset_Handler>:
{
 80021a8:	b508      	push	{r3, lr}
    SystemInit();
 80021aa:	f000 f81f 	bl	80021ec <SystemInit>
    uint32_t *dst = &_sdata;
 80021ae:	4b0a      	ldr	r3, [pc, #40]	@ (80021d8 <Reset_Handler+0x30>)
    uint32_t *src = &_sidata;
 80021b0:	4a0a      	ldr	r2, [pc, #40]	@ (80021dc <Reset_Handler+0x34>)
    while (dst < &_edata) {
 80021b2:	e003      	b.n	80021bc <Reset_Handler+0x14>
        *dst++ = *src++;
 80021b4:	f852 1b04 	ldr.w	r1, [r2], #4
 80021b8:	f843 1b04 	str.w	r1, [r3], #4
    while (dst < &_edata) {
 80021bc:	4908      	ldr	r1, [pc, #32]	@ (80021e0 <Reset_Handler+0x38>)
 80021be:	428b      	cmp	r3, r1
 80021c0:	d3f8      	bcc.n	80021b4 <Reset_Handler+0xc>
    for (dst = &_sbss; dst < &_ebss; ++dst) {
 80021c2:	4b08      	ldr	r3, [pc, #32]	@ (80021e4 <Reset_Handler+0x3c>)
 80021c4:	e002      	b.n	80021cc <Reset_Handler+0x24>
        *dst = 0u;
 80021c6:	2200      	movs	r2, #0
 80021c8:	f843 2b04 	str.w	r2, [r3], #4
    for (dst = &_sbss; dst < &_ebss; ++dst) {
 80021cc:	4a06      	ldr	r2, [pc, #24]	@ (80021e8 <Reset_Handler+0x40>)
 80021ce:	4293      	cmp	r3, r2
 80021d0:	d3f9      	bcc.n	80021c6 <Reset_Handler+0x1e>
    (void)main();
 80021d2:	f7fe fde7 	bl	8000da4 <main>
    while (1) {
 80021d6:	e7fe      	b.n	80021d6 <Reset_Handler+0x2e>
 80021d8:	20000000 	.word	0x20000000
 80021dc:	0800296c 	.word	0x0800296c
 80021e0:	20000008 	.word	0x20000008
 80021e4:	20000008 	.word	0x20000008
 80021e8:	2000101c 	.word	0x2000101c

080021ec <SystemInit>:

  /* Configure the Vector Table location -------------------------------------*/
#if defined(USER_VECT_TAB_ADDRESS)
  SCB->VTOR = VECT_TAB_BASE_ADDRESS | VECT_TAB_OFFSET; /* Vector Table Relocation in Internal SRAM. */
#endif /* USER_VECT_TAB_ADDRESS */
}
 80021ec:	4770      	bx	lr
	...

080021f0 <SystemCoreClockUpdate>:
#if defined(STM32F100xB) || defined(STM32F100xE)
  uint32_t prediv1factor = 0U;
#endif /* STM32F100xB or STM32F100xE */
    
  /* Get SYSCLK source -------------------------------------------------------*/
  tmp = RCC->CFGR & RCC_CFGR_SWS;
 80021f0:	4b1f      	ldr	r3, [pc, #124]	@ (8002270 <SystemCoreClockUpdate+0x80>)
 80021f2:	685b      	ldr	r3, [r3, #4]
 80021f4:	f003 030c 	and.w	r3, r3, #12
  
  switch (tmp)
 80021f8:	2b04      	cmp	r3, #4
 80021fa:	d011      	beq.n	8002220 <SystemCoreClockUpdate+0x30>
 80021fc:	2b08      	cmp	r3, #8
 80021fe:	d013      	beq.n	8002228 <SystemCoreClockUpdate+0x38>
 8002200:	2b00      	cmp	r3, #0
 8002202:	d131      	bne.n	8002268 <SystemCoreClockUpdate+0x78>
  {
    case 0x00U:  /* HSI used as system clock */
      SystemCoreClock = HSI_VALUE;
 8002204:	4b1b      	ldr	r3, [pc, #108]	@ (8002274 <SystemCoreClockUpdate+0x84>)
 8002206:	4a1c      	ldr	r2, [pc, #112]	@ (8002278 <SystemCoreClockUpdate+0x88>)
 8002208:	601a      	str	r2, [r3, #0]
      break;
  }
  
  /* Compute HCLK clock frequency ----------------*/
  /* Get HCLK prescaler */
  tmp = AHBPrescTable[((RCC->CFGR & RCC_CFGR_HPRE) >> 4U)];
 800220a:	4b19      	ldr	r3, [pc, #100]	@ (8002270 <SystemCoreClockUpdate+0x80>)
 800220c:	685b      	ldr	r3, [r3, #4]
 800220e:	f3c3 1303 	ubfx	r3, r3, #4, #4
 8002212:	4a1a      	ldr	r2, [pc, #104]	@ (800227c <SystemCoreClockUpdate+0x8c>)
 8002214:	5cd1      	ldrb	r1, [r2, r3]
  /* HCLK clock frequency */
  SystemCoreClock >>= tmp;  
 8002216:	4a17      	ldr	r2, [pc, #92]	@ (8002274 <SystemCoreClockUpdate+0x84>)
 8002218:	6813      	ldr	r3, [r2, #0]
 800221a:	40cb      	lsrs	r3, r1
 800221c:	6013      	str	r3, [r2, #0]
}
 800221e:	4770      	bx	lr
      SystemCoreClock = HSE_VALUE;
 8002220:	4b14      	ldr	r3, [pc, #80]	@ (8002274 <SystemCoreClockUpdate+0x84>)
 8002222:	4a15      	ldr	r2, [pc, #84]	@ (8002278 <SystemCoreClockUpdate+0x88>)
 8002224:	601a      	str	r2, [r3, #0]
      break;
 8002226:	e7f0      	b.n	800220a <SystemCoreClockUpdate+0x1a>
      pllmull = RCC->CFGR & RCC_CFGR_PLLMULL;
 8002228:	4a11      	ldr	r2, [pc, #68]	@ (8002270 <SystemCoreClockUpdate+0x80>)
 800222a:	6853      	ldr	r3, [r2, #4]
      pllsource = RCC->CFGR & RCC_CFGR_PLLSRC;
 800222c:	6852      	ldr	r2, [r2, #4]
      pllmull = ( pllmull >> 18U) + 2U;
 800222e:	f3c3 4383 	ubfx	r3, r3, #18, #4
 8002232:	3302      	adds	r3, #2
      if (pllsource == 0x00U)
 8002234:	f412 3f80 	tst.w	r2, #65536	@ 0x10000
 8002238:	d105      	bne.n	8002246 <SystemCoreClockUpdate+0x56>
        SystemCoreClock = (HSI_VALUE >> 1U) * pllmull;
 800223a:	4a11      	ldr	r2, [pc, #68]	@ (8002280 <SystemCoreClockUpdate+0x90>)
 800223c:	fb02 f303 	mul.w	r3, r2, r3
 8002240:	4a0c      	ldr	r2, [pc, #48]	@ (8002274 <SystemCoreClockUpdate+0x84>)
 8002242:	6013      	str	r3, [r2, #0]
 8002244:	e7e1      	b.n	800220a <SystemCoreClockUpdate+0x1a>
        if ((RCC->CFGR & RCC_CFGR_PLLXTPRE) != (uint32_t)RESET)
 8002246:	4a0a      	ldr	r2, [pc, #40]	@ (8002270 <SystemCoreClockUpdate+0x80>)
 8002248:	6852      	ldr	r2, [r2, #4]
 800224a:	f412 3f00 	tst.w	r2, #131072	@ 0x20000
 800224e:	d005      	beq.n	800225c <SystemCoreClockUpdate+0x6c>
          SystemCoreClock = (HSE_VALUE >> 1U) * pllmull;
 8002250:	4a0b      	ldr	r2, [pc, #44]	@ (8002280 <SystemCoreClockUpdate+0x90>)
 8002252:	fb02 f303 	mul.w	r3, r2, r3
 8002256:	4a07      	ldr	r2, [pc, #28]	@ (8002274 <SystemCoreClockUpdate+0x84>)
 8002258:	6013      	str	r3, [r2, #0]
 800225a:	e7d6      	b.n	800220a <SystemCoreClockUpdate+0x1a>
          SystemCoreClock = HSE_VALUE * pllmull;
 800225c:	4a06      	ldr	r2, [pc, #24]	@ (8002278 <SystemCoreClockUpdate+0x88>)
 800225e:	fb02 f303 	mul.w	r3, r2, r3
 8002262:	4a04      	ldr	r2, [pc, #16]	@ (8002274 <SystemCoreClockUpdate+0x84>)
 8002264:	6013      	str	r3, [r2, #0]
 8002266:	e7d0      	b.n	800220a <SystemCoreClockUpdate+0x1a>
      SystemCoreClock = HSI_VALUE;
 8002268:	4b02      	ldr	r3, [pc, #8]	@ (8002274 <SystemCoreClockUpdate+0x84>)
 800226a:	4a03      	ldr	r2, [pc, #12]	@ (8002278 <SystemCoreClockUpdate+0x88>)
 800226c:	601a      	str	r2, [r3, #0]
      break;
 800226e:	e7cc      	b.n	800220a <SystemCoreClockUpdate+0x1a>
 8002270:	40021000 	.word	0x40021000
 8002274:	20000004 	.word	0x20000004
 8002278:	007a1200 	.word	0x007a1200
 800227c:	08002954 	.word	0x08002954
 8002280:	003d0900 	.word	0x003d0900

08002284 <memset>:
 8002284:	b570      	push	{r4, r5, r6, lr}
 8002286:	0786      	lsls	r6, r0, #30
 8002288:	d047      	beq.n	800231a <memset+0x96>
 800228a:	1e54      	subs	r4, r2, #1
 800228c:	2a00      	cmp	r2, #0
 800228e:	d03e      	beq.n	800230e <memset+0x8a>
 8002290:	4603      	mov	r3, r0
 8002292:	b2ca      	uxtb	r2, r1
 8002294:	e001      	b.n	800229a <memset+0x16>
 8002296:	3c01      	subs	r4, #1
 8002298:	d339      	bcc.n	800230e <memset+0x8a>
 800229a:	f803 2b01 	strb.w	r2, [r3], #1
 800229e:	079d      	lsls	r5, r3, #30
 80022a0:	d1f9      	bne.n	8002296 <memset+0x12>
 80022a2:	2c03      	cmp	r4, #3
 80022a4:	d92c      	bls.n	8002300 <memset+0x7c>
 80022a6:	b2cd      	uxtb	r5, r1
 80022a8:	eb05 2505 	add.w	r5, r5, r5, lsl #8
 80022ac:	2c0f      	cmp	r4, #15
 80022ae:	461a      	mov	r2, r3
 80022b0:	eb05 4505 	add.w	r5, r5, r5, lsl #16
 80022b4:	d934      	bls.n	8002320 <memset+0x9c>
 80022b6:	f1a4 0c10 	sub.w	ip, r4, #16
 80022ba:	f02c 060f 	bic.w	r6, ip, #15
 80022be:	f103 0e10 	add.w	lr, r3, #16
 80022c2:	44b6      	add	lr, r6
 80022c4:	ea4f 1c1c 	mov.w	ip, ip, lsr #4
 80022c8:	e9c2 5500 	strd	r5, r5, [r2]
 80022cc:	e9c2 5502 	strd	r5, r5, [r2, #8]
 80022d0:	3210      	adds	r2, #16
 80022d2:	4572      	cmp	r2, lr
 80022d4:	d1f8      	bne.n	80022c8 <memset+0x44>
 80022d6:	f10c 0201 	add.w	r2, ip, #1
 80022da:	f014 0f0c 	tst.w	r4, #12
 80022de:	eb03 1202 	add.w	r2, r3, r2, lsl #4
 80022e2:	f004 0c0f 	and.w	ip, r4, #15
 80022e6:	d013      	beq.n	8002310 <memset+0x8c>
 80022e8:	f1ac 0304 	sub.w	r3, ip, #4
 80022ec:	f023 0303 	bic.w	r3, r3, #3
 80022f0:	3304      	adds	r3, #4
 80022f2:	4413      	add	r3, r2
 80022f4:	f842 5b04 	str.w	r5, [r2], #4
 80022f8:	4293      	cmp	r3, r2
 80022fa:	d1fb      	bne.n	80022f4 <memset+0x70>
 80022fc:	f00c 0403 	and.w	r4, ip, #3
 8002300:	b12c      	cbz	r4, 800230e <memset+0x8a>
 8002302:	b2c9      	uxtb	r1, r1
 8002304:	441c      	add	r4, r3
 8002306:	f803 1b01 	strb.w	r1, [r3], #1
 800230a:	42a3      	cmp	r3, r4
 800230c:	d1fb      	bne.n	8002306 <memset+0x82>
 800230e:	bd70      	pop	{r4, r5, r6, pc}
 8002310:	4664      	mov	r4, ip
 8002312:	4613      	mov	r3, r2
 8002314:	2c00      	cmp	r4, #0
 8002316:	d1f4      	bne.n	8002302 <memset+0x7e>
 8002318:	e7f9      	b.n	800230e <memset+0x8a>
 800231a:	4603      	mov	r3, r0
 800231c:	4614      	mov	r4, r2
 800231e:	e7c0      	b.n	80022a2 <memset+0x1e>
 8002320:	46a4      	mov	ip, r4
 8002322:	e7e1      	b.n	80022e8 <memset+0x64>

08002324 <strchr>:
 8002324:	f011 01ff 	ands.w	r1, r1, #255	@ 0xff
 8002328:	4603      	mov	r3, r0
 800232a:	f000 0203 	and.w	r2, r0, #3
 800232e:	d039      	beq.n	80023a4 <strchr+0x80>
 8002330:	bb8a      	cbnz	r2, 8002396 <strchr+0x72>
 8002332:	6802      	ldr	r2, [r0, #0]
 8002334:	b510      	push	{r4, lr}
 8002336:	eb01 2e01 	add.w	lr, r1, r1, lsl #8
 800233a:	eb0e 4e0e 	add.w	lr, lr, lr, lsl #16
 800233e:	ea8e 0402 	eor.w	r4, lr, r2
 8002342:	f1a2 3301 	sub.w	r3, r2, #16843009	@ 0x1010101
 8002346:	ea23 0302 	bic.w	r3, r3, r2
 800234a:	f1a4 3201 	sub.w	r2, r4, #16843009	@ 0x1010101
 800234e:	ea22 0204 	bic.w	r2, r2, r4
 8002352:	4313      	orrs	r3, r2
 8002354:	f013 3f80 	tst.w	r3, #2155905152	@ 0x80808080
 8002358:	d10f      	bne.n	800237a <strchr+0x56>
 800235a:	f850 4f04 	ldr.w	r4, [r0, #4]!
 800235e:	ea84 0c0e 	eor.w	ip, r4, lr
 8002362:	f1a4 3301 	sub.w	r3, r4, #16843009	@ 0x1010101
 8002366:	f1ac 3201 	sub.w	r2, ip, #16843009	@ 0x1010101
 800236a:	ea23 0304 	bic.w	r3, r3, r4
 800236e:	ea22 020c 	bic.w	r2, r2, ip
 8002372:	4313      	orrs	r3, r2
 8002374:	f013 3f80 	tst.w	r3, #2155905152	@ 0x80808080
 8002378:	d0ef      	beq.n	800235a <strchr+0x36>
 800237a:	7803      	ldrb	r3, [r0, #0]
 800237c:	b923      	cbnz	r3, 8002388 <strchr+0x64>
 800237e:	e036      	b.n	80023ee <strchr+0xca>
 8002380:	f810 3f01 	ldrb.w	r3, [r0, #1]!
 8002384:	2b00      	cmp	r3, #0
 8002386:	d032      	beq.n	80023ee <strchr+0xca>
 8002388:	4299      	cmp	r1, r3
 800238a:	d1f9      	bne.n	8002380 <strchr+0x5c>
 800238c:	bd10      	pop	{r4, pc}
 800238e:	428a      	cmp	r2, r1
 8002390:	d028      	beq.n	80023e4 <strchr+0xc0>
 8002392:	079a      	lsls	r2, r3, #30
 8002394:	d029      	beq.n	80023ea <strchr+0xc6>
 8002396:	781a      	ldrb	r2, [r3, #0]
 8002398:	4618      	mov	r0, r3
 800239a:	3301      	adds	r3, #1
 800239c:	2a00      	cmp	r2, #0
 800239e:	d1f6      	bne.n	800238e <strchr+0x6a>
 80023a0:	4610      	mov	r0, r2
 80023a2:	4770      	bx	lr
 80023a4:	b9ca      	cbnz	r2, 80023da <strchr+0xb6>
 80023a6:	6802      	ldr	r2, [r0, #0]
 80023a8:	f1a2 3301 	sub.w	r3, r2, #16843009	@ 0x1010101
 80023ac:	ea23 0302 	bic.w	r3, r3, r2
 80023b0:	f013 3f80 	tst.w	r3, #2155905152	@ 0x80808080
 80023b4:	d108      	bne.n	80023c8 <strchr+0xa4>
 80023b6:	f850 2f04 	ldr.w	r2, [r0, #4]!
 80023ba:	f1a2 3301 	sub.w	r3, r2, #16843009	@ 0x1010101
 80023be:	ea23 0302 	bic.w	r3, r3, r2
 80023c2:	f013 3f80 	tst.w	r3, #2155905152	@ 0x80808080
 80023c6:	d0f6      	beq.n	80023b6 <strchr+0x92>
 80023c8:	7803      	ldrb	r3, [r0, #0]
 80023ca:	b15b      	cbz	r3, 80023e4 <strchr+0xc0>
 80023cc:	f810 3f01 	ldrb.w	r3, [r0, #1]!
 80023d0:	2b00      	cmp	r3, #0
 80023d2:	d1fb      	bne.n	80023cc <strchr+0xa8>
 80023d4:	4770      	bx	lr
 80023d6:	0799      	lsls	r1, r3, #30
 80023d8:	d005      	beq.n	80023e6 <strchr+0xc2>
 80023da:	4618      	mov	r0, r3
 80023dc:	f813 2b01 	ldrb.w	r2, [r3], #1
 80023e0:	2a00      	cmp	r2, #0
 80023e2:	d1f8      	bne.n	80023d6 <strchr+0xb2>
 80023e4:	4770      	bx	lr
 80023e6:	4618      	mov	r0, r3
 80023e8:	e7dd      	b.n	80023a6 <strchr+0x82>
 80023ea:	4618      	mov	r0, r3
 80023ec:	e7a1      	b.n	8002332 <strchr+0xe>
 80023ee:	4618      	mov	r0, r3
 80023f0:	bd10      	pop	{r4, pc}
 80023f2:	bf00      	nop

080023f4 <memcmp>:
 80023f4:	2a03      	cmp	r2, #3
 80023f6:	b430      	push	{r4, r5}
 80023f8:	d915      	bls.n	8002426 <memcmp+0x32>
 80023fa:	ea41 0400 	orr.w	r4, r1, r0
 80023fe:	07a4      	lsls	r4, r4, #30
 8002400:	4684      	mov	ip, r0
 8002402:	460b      	mov	r3, r1
 8002404:	d004      	beq.n	8002410 <memcmp+0x1c>
 8002406:	1e54      	subs	r4, r2, #1
 8002408:	e00f      	b.n	800242a <memcmp+0x36>
 800240a:	3a04      	subs	r2, #4
 800240c:	2a03      	cmp	r2, #3
 800240e:	d908      	bls.n	8002422 <memcmp+0x2e>
 8002410:	4619      	mov	r1, r3
 8002412:	4660      	mov	r0, ip
 8002414:	f853 4b04 	ldr.w	r4, [r3], #4
 8002418:	f85c 5b04 	ldr.w	r5, [ip], #4
 800241c:	42a5      	cmp	r5, r4
 800241e:	d0f4      	beq.n	800240a <memcmp+0x16>
 8002420:	e7f1      	b.n	8002406 <memcmp+0x12>
 8002422:	4660      	mov	r0, ip
 8002424:	4619      	mov	r1, r3
 8002426:	1e54      	subs	r4, r2, #1
 8002428:	b17a      	cbz	r2, 800244a <memcmp+0x56>
 800242a:	1e43      	subs	r3, r0, #1
 800242c:	3901      	subs	r1, #1
 800242e:	1902      	adds	r2, r0, r4
 8002430:	e001      	b.n	8002436 <memcmp+0x42>
 8002432:	429a      	cmp	r2, r3
 8002434:	d009      	beq.n	800244a <memcmp+0x56>
 8002436:	f813 0f01 	ldrb.w	r0, [r3, #1]!
 800243a:	f811 cf01 	ldrb.w	ip, [r1, #1]!
 800243e:	4560      	cmp	r0, ip
 8002440:	d0f7      	beq.n	8002432 <memcmp+0x3e>
 8002442:	eba0 000c 	sub.w	r0, r0, ip
 8002446:	bc30      	pop	{r4, r5}
 8002448:	4770      	bx	lr
 800244a:	2000      	movs	r0, #0
 800244c:	bc30      	pop	{r4, r5}
 800244e:	4770      	bx	lr

08002450 <memcpy>:
 8002450:	4684      	mov	ip, r0
 8002452:	ea41 0300 	orr.w	r3, r1, r0
 8002456:	f013 0303 	ands.w	r3, r3, #3
 800245a:	d149      	bne.n	80024f0 <memcpy+0xa0>
 800245c:	3a40      	subs	r2, #64	@ 0x40
 800245e:	d323      	bcc.n	80024a8 <memcpy+0x58>
 8002460:	680b      	ldr	r3, [r1, #0]
 8002462:	6003      	str	r3, [r0, #0]
 8002464:	684b      	ldr	r3, [r1, #4]
 8002466:	6043      	str	r3, [r0, #4]
 8002468:	688b      	ldr	r3, [r1, #8]
 800246a:	6083      	str	r3, [r0, #8]
 800246c:	68cb      	ldr	r3, [r1, #12]
 800246e:	60c3      	str	r3, [r0, #12]
 8002470:	690b      	ldr	r3, [r1, #16]
 8002472:	6103      	str	r3, [r0, #16]
 8002474:	694b      	ldr	r3, [r1, #20]
 8002476:	6143      	str	r3, [r0, #20]
 8002478:	698b      	ldr	r3, [r1, #24]
 800247a:	6183      	str	r3, [r0, #24]
 800247c:	69cb      	ldr	r3, [r1, #28]
 800247e:	61c3      	str	r3, [r0, #28]
 8002480:	6a0b      	ldr	r3, [r1, #32]
 8002482:	6203      	str	r3, [r0, #32]
 8002484:	6a4b      	ldr	r3, [r1, #36]	@ 0x24
 8002486:	6243      	str	r3, [r0, #36]	@ 0x24
 8002488:	6a8b      	ldr	r3, [r1, #40]	@ 0x28
 800248a:	6283      	str	r3, [r0, #40]	@ 0x28
 800248c:	6acb      	ldr	r3, [r1, #44]	@ 0x2c
 800248e:	62c3      	str	r3, [r0, #44]	@ 0x2c
 8002490:	6b0b      	ldr	r3, [r1, #48]	@ 0x30
 8002492:	6303      	str	r3, [r0, #48]	@ 0x30
 8002494:	6b4b      	ldr	r3, [r1, #52]	@ 0x34
 8002496:	6343      	str	r3, [r0, #52]	@ 0x34
 8002498:	6b8b      	ldr	r3, [r1, #56]	@ 0x38
 800249a:	6383      	str	r3, [r0, #56]	@ 0x38
 800249c:	6bcb      	ldr	r3, [r1, #60]	@ 0x3c
 800249e:	63c3      	str	r3, [r0, #60]	@ 0x3c
 80024a0:	3040      	adds	r0, #64	@ 0x40
 80024a2:	3140      	adds	r1, #64	@ 0x40
 80024a4:	3a40      	subs	r2, #64	@ 0x40
 80024a6:	d2db      	bcs.n	8002460 <memcpy+0x10>
 80024a8:	3230      	adds	r2, #48	@ 0x30
 80024aa:	d30b      	bcc.n	80024c4 <memcpy+0x74>
 80024ac:	680b      	ldr	r3, [r1, #0]
 80024ae:	6003      	str	r3, [r0, #0]
 80024b0:	684b      	ldr	r3, [r1, #4]
 80024b2:	6043      	str	r3, [r0, #4]
 80024b4:	688b      	ldr	r3, [r1, #8]
 80024b6:	6083      	str	r3, [r0, #8]
 80024b8:	68cb      	ldr	r3, [r1, #12]
 80024ba:	60c3      	str	r3, [r0, #12]
 80024bc:	3010      	adds	r0, #16
 80024be:	3110      	adds	r1, #16
 80024c0:	3a10      	subs	r2, #16
 80024c2:	d2f3      	bcs.n	80024ac <memcpy+0x5c>
 80024c4:	320c      	adds	r2, #12
 80024c6:	d305      	bcc.n	80024d4 <memcpy+0x84>
 80024c8:	f851 3b04 	ldr.w	r3, [r1], #4
 80024cc:	f840 3b04 	str.w	r3, [r0], #4
 80024d0:	3a04      	subs	r2, #4
 80024d2:	d2f9      	bcs.n	80024c8 <memcpy+0x78>
 80024d4:	3204      	adds	r2, #4
 80024d6:	d008      	beq.n	80024ea <memcpy+0x9a>
 80024d8:	07d2      	lsls	r2, r2, #31
 80024da:	bf1c      	itt	ne
 80024dc:	f811 3b01 	ldrbne.w	r3, [r1], #1
 80024e0:	f800 3b01 	strbne.w	r3, [r0], #1
 80024e4:	d301      	bcc.n	80024ea <memcpy+0x9a>
 80024e6:	880b      	ldrh	r3, [r1, #0]
 80024e8:	8003      	strh	r3, [r0, #0]
 80024ea:	4660      	mov	r0, ip
 80024ec:	4770      	bx	lr
 80024ee:	bf00      	nop
 80024f0:	2a08      	cmp	r2, #8
 80024f2:	d313      	bcc.n	800251c <memcpy+0xcc>
 80024f4:	078b      	lsls	r3, r1, #30
 80024f6:	d0b1      	beq.n	800245c <memcpy+0xc>
 80024f8:	f010 0303 	ands.w	r3, r0, #3
 80024fc:	d0ae      	beq.n	800245c <memcpy+0xc>
 80024fe:	f1c3 0304 	rsb	r3, r3, #4
 8002502:	1ad2      	subs	r2, r2, r3
 8002504:	07db      	lsls	r3, r3, #31
 8002506:	bf1c      	itt	ne
 8002508:	f811 3b01 	ldrbne.w	r3, [r1], #1
 800250c:	f800 3b01 	strbne.w	r3, [r0], #1
 8002510:	d3a4      	bcc.n	800245c <memcpy+0xc>
 8002512:	f831 3b02 	ldrh.w	r3, [r1], #2
 8002516:	f820 3b02 	strh.w	r3, [r0], #2
 800251a:	e79f      	b.n	800245c <memcpy+0xc>
 800251c:	3a04      	subs	r2, #4
 800251e:	d3d9      	bcc.n	80024d4 <memcpy+0x84>
 8002520:	3a01      	subs	r2, #1
 8002522:	f811 3b01 	ldrb.w	r3, [r1], #1
 8002526:	f800 3b01 	strb.w	r3, [r0], #1
 800252a:	d2f9      	bcs.n	8002520 <memcpy+0xd0>
 800252c:	780b      	ldrb	r3, [r1, #0]
 800252e:	7003      	strb	r3, [r0, #0]
 8002530:	784b      	ldrb	r3, [r1, #1]
 8002532:	7043      	strb	r3, [r0, #1]
 8002534:	788b      	ldrb	r3, [r1, #2]
 8002536:	7083      	strb	r3, [r0, #2]
 8002538:	4660      	mov	r0, ip
 800253a:	4770      	bx	lr
 800253c:	43484453 	.word	0x43484453
 8002540:	5844532f 	.word	0x5844532f
 8002544:	00000043 	.word	0x00000043
 8002548:	43534453 	.word	0x43534453
 800254c:	00000000 	.word	0x00000000
 8002550:	203a6473 	.word	0x203a6473
 8002554:	30444d43 	.word	0x30444d43
 8002558:	0d2e2e2e 	.word	0x0d2e2e2e
 800255c:	0000000a 	.word	0x0000000a
 8002560:	203a6473 	.word	0x203a6473
 8002564:	30444d43 	.word	0x30444d43
 8002568:	3d315220 	.word	0x3d315220
 800256c:	00007830 	.word	0x00007830
 8002570:	00000a0d 	.word	0x00000a0d
 8002574:	203a6473 	.word	0x203a6473
 8002578:	38444d43 	.word	0x38444d43
 800257c:	3d315220 	.word	0x3d315220
 8002580:	00007830 	.word	0x00007830
 8002584:	3d375220 	.word	0x3d375220
 8002588:	00000000 	.word	0x00000000
 800258c:	203a6473 	.word	0x203a6473
 8002590:	444d4341 	.word	0x444d4341
 8002594:	76283134 	.word	0x76283134
 8002598:	70202932 	.word	0x70202932
 800259c:	736c6c6f 	.word	0x736c6c6f
 80025a0:	0000003d 	.word	0x0000003d
 80025a4:	203a6473 	.word	0x203a6473
 80025a8:	444d4341 	.word	0x444d4341
 80025ac:	76283134 	.word	0x76283134
 80025b0:	70202931 	.word	0x70202931
 80025b4:	736c6c6f 	.word	0x736c6c6f
 80025b8:	0000003d 	.word	0x0000003d
 80025bc:	203a6473 	.word	0x203a6473
 80025c0:	3d52434f 	.word	0x3d52434f
 80025c4:	00007830 	.word	0x00007830
 80025c8:	70797420 	.word	0x70797420
 80025cc:	00003d65 	.word	0x00003d65
 80025d0:	203a6473 	.word	0x203a6473
 80025d4:	31444d43 	.word	0x31444d43
 80025d8:	31522036 	.word	0x31522036
 80025dc:	0078303d 	.word	0x0078303d
 80025e0:	203a6473 	.word	0x203a6473
 80025e4:	74636573 	.word	0x74636573
 80025e8:	3d73726f 	.word	0x3d73726f
 80025ec:	00000000 	.word	0x00000000
 80025f0:	70616320 	.word	0x70616320
 80025f4:	74696361 	.word	0x74696361
 80025f8:	696d5f79 	.word	0x696d5f79
 80025fc:	00003d62 	.word	0x00003d62
 8002600:	636e6562 	.word	0x636e6562
 8002604:	66203a68 	.word	0x66203a68
 8002608:	3d656c69 	.word	0x3d656c69
 800260c:	00000000 	.word	0x00000000
 8002610:	432f3a30 	.word	0x432f3a30
 8002614:	4258444f 	.word	0x4258444f
 8002618:	422e4e45 	.word	0x422e4e45
 800261c:	00004e49 	.word	0x00004e49
 8002620:	74796220 	.word	0x74796220
 8002624:	003d7365 	.word	0x003d7365
 8002628:	75686320 	.word	0x75686320
 800262c:	003d6b6e 	.word	0x003d6b6e
 8002630:	69707320 	.word	0x69707320
 8002634:	6572705f 	.word	0x6572705f
 8002638:	6c616373 	.word	0x6c616373
 800263c:	2f3d7265 	.word	0x2f3d7265
 8002640:	00000000 	.word	0x00000000
 8002644:	69707320 	.word	0x69707320
 8002648:	3d7a685f 	.word	0x3d7a685f
 800264c:	00000000 	.word	0x00000000
 8002650:	636e6562 	.word	0x636e6562
 8002654:	66203a68 	.word	0x66203a68
 8002658:	65706f5f 	.word	0x65706f5f
 800265c:	3e2d206e 	.word	0x3e2d206e
 8002660:	00000020 	.word	0x00000020
 8002664:	636e6562 	.word	0x636e6562
 8002668:	66203a68 	.word	0x66203a68
 800266c:	6972775f 	.word	0x6972775f
 8002670:	2d206574 	.word	0x2d206574
 8002674:	0000203e 	.word	0x0000203e
 8002678:	636e6562 	.word	0x636e6562
 800267c:	73203a68 	.word	0x73203a68
 8002680:	74726f68 	.word	0x74726f68
 8002684:	69727720 	.word	0x69727720
 8002688:	62206574 	.word	0x62206574
 800268c:	73657479 	.word	0x73657479
 8002690:	0000003d 	.word	0x0000003d
 8002694:	636e6562 	.word	0x636e6562
 8002698:	70203a68 	.word	0x70203a68
 800269c:	72676f72 	.word	0x72676f72
 80026a0:	5f737365 	.word	0x5f737365
 80026a4:	65747962 	.word	0x65747962
 80026a8:	00003d73 	.word	0x00003d73
 80026ac:	616c6520 	.word	0x616c6520
 80026b0:	64657370 	.word	0x64657370
 80026b4:	3d736d5f 	.word	0x3d736d5f
 80026b8:	00000000 	.word	0x00000000
 80026bc:	636e6562 	.word	0x636e6562
 80026c0:	66203a68 	.word	0x66203a68
 80026c4:	6e79735f 	.word	0x6e79735f
 80026c8:	3e2d2063 	.word	0x3e2d2063
 80026cc:	00000020 	.word	0x00000020
 80026d0:	636e6562 	.word	0x636e6562
 80026d4:	66203a68 	.word	0x66203a68
 80026d8:	6f6c635f 	.word	0x6f6c635f
 80026dc:	2d206573 	.word	0x2d206573
 80026e0:	0000203e 	.word	0x0000203e
 80026e4:	636e6562 	.word	0x636e6562
 80026e8:	62203a68 	.word	0x62203a68
 80026ec:	73657479 	.word	0x73657479
 80026f0:	6972775f 	.word	0x6972775f
 80026f4:	6e657474 	.word	0x6e657474
 80026f8:	0000003d 	.word	0x0000003d
 80026fc:	636e6562 	.word	0x636e6562
 8002700:	77203a68 	.word	0x77203a68
 8002704:	65746972 	.word	0x65746972
 8002708:	3d736d5f 	.word	0x3d736d5f
 800270c:	00000000 	.word	0x00000000
 8002710:	6e797320 	.word	0x6e797320
 8002714:	6c635f63 	.word	0x6c635f63
 8002718:	5f65736f 	.word	0x5f65736f
 800271c:	003d736d 	.word	0x003d736d
 8002720:	746f7420 	.word	0x746f7420
 8002724:	6d5f6c61 	.word	0x6d5f6c61
 8002728:	00003d73 	.word	0x00003d73
 800272c:	636e6562 	.word	0x636e6562
 8002730:	77203a68 	.word	0x77203a68
 8002734:	65746972 	.word	0x65746972
 8002738:	7461725f 	.word	0x7461725f
 800273c:	426b5f65 	.word	0x426b5f65
 8002740:	003d7370 	.word	0x003d7370
 8002744:	746f7420 	.word	0x746f7420
 8002748:	725f6c61 	.word	0x725f6c61
 800274c:	5f657461 	.word	0x5f657461
 8002750:	7370426b 	.word	0x7370426b
 8002754:	0000003d 	.word	0x0000003d
 8002758:	64730a0d 	.word	0x64730a0d
 800275c:	6972775f 	.word	0x6972775f
 8002760:	625f6574 	.word	0x625f6574
 8002764:	68636e65 	.word	0x68636e65
 8002768:	5453203a 	.word	0x5453203a
 800276c:	4632334d 	.word	0x4632334d
 8002770:	43333031 	.word	0x43333031
 8002774:	50532038 	.word	0x50532038
 8002778:	2f203149 	.word	0x2f203149
 800277c:	41535520 	.word	0x41535520
 8002780:	0d315452 	.word	0x0d315452
 8002784:	0000000a 	.word	0x0000000a
 8002788:	775f6473 	.word	0x775f6473
 800278c:	65746972 	.word	0x65746972
 8002790:	6e65625f 	.word	0x6e65625f
 8002794:	203a6863 	.word	0x203a6863
 8002798:	656c6966 	.word	0x656c6966
 800279c:	76656c2d 	.word	0x76656c2d
 80027a0:	46206c65 	.word	0x46206c65
 80027a4:	73467461 	.word	0x73467461
 80027a8:	69727720 	.word	0x69727720
 80027ac:	62206574 	.word	0x62206574
 80027b0:	68636e65 	.word	0x68636e65
 80027b4:	6b72616d 	.word	0x6b72616d
 80027b8:	00000a0d 	.word	0x00000a0d
 80027bc:	775f6473 	.word	0x775f6473
 80027c0:	65746972 	.word	0x65746972
 80027c4:	6e65625f 	.word	0x6e65625f
 80027c8:	203a6863 	.word	0x203a6863
 80027cc:	3d344150 	.word	0x3d344150
 80027d0:	50205343 	.word	0x50205343
 80027d4:	533d3541 	.word	0x533d3541
 80027d8:	50204b43 	.word	0x50204b43
 80027dc:	4d3d3641 	.word	0x4d3d3641
 80027e0:	204f5349 	.word	0x204f5349
 80027e4:	3d374150 	.word	0x3d374150
 80027e8:	49534f4d 	.word	0x49534f4d
 80027ec:	00000a0d 	.word	0x00000a0d
 80027f0:	775f6473 	.word	0x775f6473
 80027f4:	65746972 	.word	0x65746972
 80027f8:	6e65625f 	.word	0x6e65625f
 80027fc:	203a6863 	.word	0x203a6863
 8002800:	63737973 	.word	0x63737973
 8002804:	685f6b6c 	.word	0x685f6b6c
 8002808:	00003d7a 	.word	0x00003d7a
 800280c:	775f6473 	.word	0x775f6473
 8002810:	65746972 	.word	0x65746972
 8002814:	6e65625f 	.word	0x6e65625f
 8002818:	203a6863 	.word	0x203a6863
 800281c:	72617473 	.word	0x72617473
 8002820:	676e6974 	.word	0x676e6974
 8002824:	206e6920 	.word	0x206e6920
 8002828:	30303031 	.word	0x30303031
 800282c:	0d736d20 	.word	0x0d736d20
 8002830:	0000000a 	.word	0x0000000a
 8002834:	00003a30 	.word	0x00003a30
 8002838:	636e6562 	.word	0x636e6562
 800283c:	66203a68 	.word	0x66203a68
 8002840:	756f6d5f 	.word	0x756f6d5f
 8002844:	2d20746e 	.word	0x2d20746e
 8002848:	0000203e 	.word	0x0000203e
 800284c:	636e6562 	.word	0x636e6562
 8002850:	66203a68 	.word	0x66203a68
 8002854:	79745f73 	.word	0x79745f73
 8002858:	003d6570 	.word	0x003d6570
 800285c:	69736320 	.word	0x69736320
 8002860:	003d657a 	.word	0x003d657a
 8002864:	74616620 	.word	0x74616620
 8002868:	65736162 	.word	0x65736162
 800286c:	0000003d 	.word	0x0000003d
 8002870:	72696420 	.word	0x72696420
 8002874:	65736162 	.word	0x65736162
 8002878:	0000003d 	.word	0x0000003d
 800287c:	74616420 	.word	0x74616420
 8002880:	73616261 	.word	0x73616261
 8002884:	00003d65 	.word	0x00003d65
 8002888:	775f6473 	.word	0x775f6473
 800288c:	65746972 	.word	0x65746972
 8002890:	6e65625f 	.word	0x6e65625f
 8002894:	203a6863 	.word	0x203a6863
 8002898:	706d6f63 	.word	0x706d6f63
 800289c:	6574656c 	.word	0x6574656c
 80028a0:	00000a0d 	.word	0x00000a0d
 80028a4:	33544146 	.word	0x33544146
 80028a8:	20202032 	.word	0x20202032
 80028ac:	00000000 	.word	0x00000000
 80028b0:	3a2c2b2a 	.word	0x3a2c2b2a
 80028b4:	3e3d3c3b 	.word	0x3e3d3c3b
 80028b8:	227c5d5b 	.word	0x227c5d5b
 80028bc:	00007f3f 	.word	0x00007f3f

080028c0 <hex.0>:
 80028c0:	33323130 37363534 42413938 46454443     0123456789ABCDEF
 80028d0:	00000000                                ....

080028d4 <ExCvt>:
 80028d4:	41459a80 808f418e 49454545 8f8e4949     ..EA.A..EEEIII..
 80028e4:	4f929290 55554f99 9b9a9959 9f9e9d9c     ...O.OUUY.......
 80028f4:	554f4941 a7a6a5a5 abaaa9a8 afaeadac     AIOU............
 8002904:	b3b2b1b0 b7b6b5b4 bbbab9b8 bfbebdbc     ................
 8002914:	c3c2c1c0 c7c6c5c4 cbcac9c8 cfcecdcc     ................
 8002924:	d3d2d1d0 d7d6d5d4 dbdad9d8 dfdedddc     ................
 8002934:	e3e2e1e0 e7e6e5e4 ebeae9e8 efeeedec     ................
 8002944:	f3f2f1f0 f7f6f5f4 fbfaf9f8 fffefdfc     ................

08002954 <AHBPrescTable>:
	...
 800295c:	04030201 09080706                       ........
